

Microchip MPLAB XC8 Assembler V2.20 build 20200408173844 
                                                                                               Thu Feb 18 17:28:51 2021

Microchip MPLAB XC8 C Compiler v2.20 (Free license) build 20200408173844 Og1 
     1                           	processor	16F18854
     2                           	pagewidth 120
     3                           	opt	flic
     4                           	psect	idataBANK0,global,class=CODE,delta=2,noexec
     5                           	psect	nvBANK0,global,class=BANK0,space=1,delta=1,noexec
     6                           	psect	cinit,global,class=CODE,merge=1,delta=2
     7                           	psect	bssCOMMON,global,class=COMMON,space=1,delta=1,noexec
     8                           	psect	bssBANK0,global,class=BANK0,space=1,delta=1,noexec
     9                           	psect	dataBANK0,global,class=BANK0,space=1,delta=1,noexec
    10                           	psect	bssBANK1,global,class=BANK1,space=1,delta=1,noexec
    11                           	psect	bssBANK2,global,class=BANK2,space=1,delta=1,noexec
    12                           	psect	clrtext,global,class=CODE,delta=2
    13                           	psect	cstackCOMMON,global,class=COMMON,space=1,delta=1,noexec
    14                           	psect	cstackBANK0,global,class=BANK0,space=1,delta=1,noexec
    15                           	psect	maintext,global,class=CODE,merge=1,split=1,delta=2
    16                           	psect	text1,local,class=CODE,merge=1,delta=2
    17                           	psect	text2,local,class=CODE,merge=1,delta=2
    18                           	psect	text3,local,class=CODE,merge=1,delta=2
    19                           	psect	text4,local,class=CODE,merge=1,delta=2
    20                           	psect	text5,local,class=CODE,merge=1,delta=2
    21                           	psect	text6,local,class=CODE,merge=1,delta=2
    22                           	psect	text7,local,class=CODE,merge=1,delta=2
    23                           	psect	text8,local,class=CODE,merge=1,delta=2
    24                           	psect	text9,local,class=CODE,merge=1,delta=2
    25                           	psect	text10,local,class=CODE,merge=1,delta=2
    26                           	psect	text11,local,class=CODE,merge=1,delta=2
    27                           	psect	text12,local,class=CODE,merge=1,delta=2
    28                           	psect	text13,local,class=CODE,merge=1,delta=2,group=1
    29                           	psect	text14,local,class=CODE,merge=1,delta=2
    30                           	psect	text15,local,class=CODE,merge=1,delta=2
    31                           	psect	intentry,global,class=CODE,delta=2
    32                           	psect	text17,local,class=CODE,merge=1,delta=2
    33                           	psect	text18,local,class=CODE,merge=1,delta=2
    34                           	psect	text19,local,class=CODE,merge=1,delta=2
    35                           	psect	text20,local,class=CODE,merge=1,delta=2
    36                           	psect	text21,local,class=CODE,merge=1,delta=2
    37                           	psect	config,global,abs,ovrld,class=CONFIG,space=4,delta=2,noexec
    38                           	dabs	1,0x320,16
    39                           	dabs	1,0x2A0,80
    40                           	dabs	1,0x220,80
    41                           	dabs	1,0x1D2,30
    42                           	dabs	1,0x2122,0,_Coulomb_Data
    43                           	dabs	1,0x7E,2
    44  0000                     
    45                           ; Version 2.20
    46                           ; Generated 09/04/2020 GMT
    47                           ; 
    48                           ; Copyright © 2020, Microchip Technology Inc. and its subsidiaries ("Microchip")
    49                           ; All rights reserved.
    50                           ; 
    51                           ; This software is developed by Microchip Technology Inc. and its subsidiaries ("Microch
      +                          ip").
    52                           ; 
    53                           ; Redistribution and use in source and binary forms, with or without modification, are
    54                           ; permitted provided that the following conditions are met:
    55                           ; 
    56                           ;     1. Redistributions of source code must retain the above copyright notice, this lis
      +                          t of
    57                           ;        conditions and the following disclaimer.
    58                           ; 
    59                           ;     2. Redistributions in binary form must reproduce the above copyright notice, this 
      +                          list
    60                           ;        of conditions and the following disclaimer in the documentation and/or other
    61                           ;        materials provided with the distribution.
    62                           ; 
    63                           ;     3. Microchip's name may not be used to endorse or promote products derived from th
      +                          is
    64                           ;        software without specific prior written permission.
    65                           ; 
    66                           ; THIS SOFTWARE IS PROVIDED BY MICROCHIP "AS IS" AND ANY EXPRESS OR IMPLIED WARRANTIES,
    67                           ; INCLUDING, BUT NOT LIMITED TO, THE IMPLIED WARRANTIES OF MERCHANTABILITY AND FITNESS F
      +                          OR
    68                           ; PURPOSE ARE DISCLAIMED.  IN NO EVENT SHALL MICROCHIP BE LIABLE FOR ANY DIRECT, INDIREC
      +                          T,
    69                           ; INCIDENTAL, SPECIAL, EXEMPLARY, OR CONSEQUENTIAL DAMAGES (INCLUDING BUT NOT LIMITED TO
    70                           ; PROCUREMENT OF SUBSTITUTE GOODS OR SERVICES; LOSS OF USE, DATA OR PROFITS; OR BUSINESS
    71                           ; INTERRUPTION) HOWSOEVER CAUSED AND ON ANY THEORY OF LIABILITY, WHETHER IN CONTRACT, ST
      +                          RICT
    72                           ; LIABILITY, OR TORT (INCLUDING NEGLIGENCE OR OTHERWISE) ARISING IN ANY WAY OUT OF THE U
      +                          SE OF
    73                           ; THIS SOFTWARE, EVEN IF ADVISED OF THE POSSIBILITY OF SUCH DAMAGE.
    74                           ; 
    75                           ; 
    76                           ; Code-generator required, PIC16F18854 Definitions
    77                           ; 
    78                           ; SFR Addresses
    79  0000                     	;# 
    80  0001                     	;# 
    81  0002                     	;# 
    82  0003                     	;# 
    83  0004                     	;# 
    84  0005                     	;# 
    85  0006                     	;# 
    86  0007                     	;# 
    87  0008                     	;# 
    88  0009                     	;# 
    89  000A                     	;# 
    90  000B                     	;# 
    91  000C                     	;# 
    92  000D                     	;# 
    93  000E                     	;# 
    94  0010                     	;# 
    95  0011                     	;# 
    96  0012                     	;# 
    97  0013                     	;# 
    98  0016                     	;# 
    99  0017                     	;# 
   100  0018                     	;# 
   101  001C                     	;# 
   102  001C                     	;# 
   103  001D                     	;# 
   104  001D                     	;# 
   105  001E                     	;# 
   106  001F                     	;# 
   107  008C                     	;# 
   108  008C                     	;# 
   109  008D                     	;# 
   110  008E                     	;# 
   111  008E                     	;# 
   112  008F                     	;# 
   113  0090                     	;# 
   114  0090                     	;# 
   115  0091                     	;# 
   116  0093                     	;# 
   117  0094                     	;# 
   118  0095                     	;# 
   119  0096                     	;# 
   120  0097                     	;# 
   121  0098                     	;# 
   122  0099                     	;# 
   123  009A                     	;# 
   124  009B                     	;# 
   125  009C                     	;# 
   126  009D                     	;# 
   127  009E                     	;# 
   128  010C                     	;# 
   129  010D                     	;# 
   130  010E                     	;# 
   131  010E                     	;# 
   132  010F                     	;# 
   133  0110                     	;# 
   134  0110                     	;# 
   135  0111                     	;# 
   136  0112                     	;# 
   137  0112                     	;# 
   138  0113                     	;# 
   139  0114                     	;# 
   140  0114                     	;# 
   141  0115                     	;# 
   142  0116                     	;# 
   143  0116                     	;# 
   144  0117                     	;# 
   145  0119                     	;# 
   146  0119                     	;# 
   147  0119                     	;# 
   148  011A                     	;# 
   149  011A                     	;# 
   150  011A                     	;# 
   151  011B                     	;# 
   152  011B                     	;# 
   153  011B                     	;# 
   154  011B                     	;# 
   155  011B                     	;# 
   156  011C                     	;# 
   157  011C                     	;# 
   158  011C                     	;# 
   159  011D                     	;# 
   160  011D                     	;# 
   161  011D                     	;# 
   162  011E                     	;# 
   163  011E                     	;# 
   164  011E                     	;# 
   165  011F                     	;# 
   166  011F                     	;# 
   167  011F                     	;# 
   168  011F                     	;# 
   169  011F                     	;# 
   170  018C                     	;# 
   171  018D                     	;# 
   172  018E                     	;# 
   173  018F                     	;# 
   174  0190                     	;# 
   175  0191                     	;# 
   176  0192                     	;# 
   177  0196                     	;# 
   178  0197                     	;# 
   179  0198                     	;# 
   180  0199                     	;# 
   181  019A                     	;# 
   182  019B                     	;# 
   183  019C                     	;# 
   184  020C                     	;# 
   185  020C                     	;# 
   186  020D                     	;# 
   187  020E                     	;# 
   188  020F                     	;# 
   189  020F                     	;# 
   190  0210                     	;# 
   191  0210                     	;# 
   192  0211                     	;# 
   193  0211                     	;# 
   194  0212                     	;# 
   195  0212                     	;# 
   196  0213                     	;# 
   197  0214                     	;# 
   198  0215                     	;# 
   199  0215                     	;# 
   200  0216                     	;# 
   201  0216                     	;# 
   202  0217                     	;# 
   203  0217                     	;# 
   204  0218                     	;# 
   205  0218                     	;# 
   206  0219                     	;# 
   207  021A                     	;# 
   208  021B                     	;# 
   209  021B                     	;# 
   210  021C                     	;# 
   211  021C                     	;# 
   212  021D                     	;# 
   213  021D                     	;# 
   214  021E                     	;# 
   215  021F                     	;# 
   216  028C                     	;# 
   217  028C                     	;# 
   218  028D                     	;# 
   219  028D                     	;# 
   220  028E                     	;# 
   221  028F                     	;# 
   222  0290                     	;# 
   223  0290                     	;# 
   224  0291                     	;# 
   225  0292                     	;# 
   226  0292                     	;# 
   227  0293                     	;# 
   228  0293                     	;# 
   229  0294                     	;# 
   230  0295                     	;# 
   231  0296                     	;# 
   232  0296                     	;# 
   233  0297                     	;# 
   234  0298                     	;# 
   235  0298                     	;# 
   236  0299                     	;# 
   237  0299                     	;# 
   238  029A                     	;# 
   239  029B                     	;# 
   240  029C                     	;# 
   241  029C                     	;# 
   242  029D                     	;# 
   243  030C                     	;# 
   244  030C                     	;# 
   245  030D                     	;# 
   246  030E                     	;# 
   247  030F                     	;# 
   248  0310                     	;# 
   249  0310                     	;# 
   250  0311                     	;# 
   251  0312                     	;# 
   252  0313                     	;# 
   253  0314                     	;# 
   254  0314                     	;# 
   255  0315                     	;# 
   256  0316                     	;# 
   257  0317                     	;# 
   258  0318                     	;# 
   259  0318                     	;# 
   260  0319                     	;# 
   261  031A                     	;# 
   262  031B                     	;# 
   263  031C                     	;# 
   264  031C                     	;# 
   265  031D                     	;# 
   266  031E                     	;# 
   267  031F                     	;# 
   268  038C                     	;# 
   269  038C                     	;# 
   270  038D                     	;# 
   271  038E                     	;# 
   272  0390                     	;# 
   273  0390                     	;# 
   274  0391                     	;# 
   275  0392                     	;# 
   276  040C                     	;# 
   277  040D                     	;# 
   278  040E                     	;# 
   279  040F                     	;# 
   280  0410                     	;# 
   281  0411                     	;# 
   282  0416                     	;# 
   283  0416                     	;# 
   284  0417                     	;# 
   285  0418                     	;# 
   286  0418                     	;# 
   287  0419                     	;# 
   288  041A                     	;# 
   289  041A                     	;# 
   290  041B                     	;# 
   291  041C                     	;# 
   292  041C                     	;# 
   293  041D                     	;# 
   294  041E                     	;# 
   295  041F                     	;# 
   296  048C                     	;# 
   297  048C                     	;# 
   298  048D                     	;# 
   299  048E                     	;# 
   300  048F                     	;# 
   301  048F                     	;# 
   302  0490                     	;# 
   303  0491                     	;# 
   304  0492                     	;# 
   305  0492                     	;# 
   306  0493                     	;# 
   307  0494                     	;# 
   308  0495                     	;# 
   309  0495                     	;# 
   310  0496                     	;# 
   311  0497                     	;# 
   312  0498                     	;# 
   313  0499                     	;# 
   314  049A                     	;# 
   315  049B                     	;# 
   316  049C                     	;# 
   317  049D                     	;# 
   318  050C                     	;# 
   319  050C                     	;# 
   320  050D                     	;# 
   321  050E                     	;# 
   322  050F                     	;# 
   323  050F                     	;# 
   324  0510                     	;# 
   325  0511                     	;# 
   326  0512                     	;# 
   327  0512                     	;# 
   328  0513                     	;# 
   329  0514                     	;# 
   330  0515                     	;# 
   331  0515                     	;# 
   332  0516                     	;# 
   333  0517                     	;# 
   334  0518                     	;# 
   335  0519                     	;# 
   336  051A                     	;# 
   337  051B                     	;# 
   338  051C                     	;# 
   339  051D                     	;# 
   340  058C                     	;# 
   341  058C                     	;# 
   342  058D                     	;# 
   343  058E                     	;# 
   344  058F                     	;# 
   345  058F                     	;# 
   346  0590                     	;# 
   347  0591                     	;# 
   348  0592                     	;# 
   349  0593                     	;# 
   350  060C                     	;# 
   351  060D                     	;# 
   352  060E                     	;# 
   353  060F                     	;# 
   354  0610                     	;# 
   355  0611                     	;# 
   356  0612                     	;# 
   357  0613                     	;# 
   358  0614                     	;# 
   359  0616                     	;# 
   360  0617                     	;# 
   361  0618                     	;# 
   362  0619                     	;# 
   363  061A                     	;# 
   364  061B                     	;# 
   365  061C                     	;# 
   366  061D                     	;# 
   367  061E                     	;# 
   368  068C                     	;# 
   369  068D                     	;# 
   370  068E                     	;# 
   371  068F                     	;# 
   372  0690                     	;# 
   373  0691                     	;# 
   374  0692                     	;# 
   375  0693                     	;# 
   376  0694                     	;# 
   377  070C                     	;# 
   378  070D                     	;# 
   379  070E                     	;# 
   380  070F                     	;# 
   381  0710                     	;# 
   382  0711                     	;# 
   383  0712                     	;# 
   384  0713                     	;# 
   385  0714                     	;# 
   386  0716                     	;# 
   387  0717                     	;# 
   388  0718                     	;# 
   389  0719                     	;# 
   390  071A                     	;# 
   391  071B                     	;# 
   392  071C                     	;# 
   393  071D                     	;# 
   394  071E                     	;# 
   395  0796                     	;# 
   396  0797                     	;# 
   397  0798                     	;# 
   398  0799                     	;# 
   399  079A                     	;# 
   400  079B                     	;# 
   401  080C                     	;# 
   402  080D                     	;# 
   403  080E                     	;# 
   404  080F                     	;# 
   405  0810                     	;# 
   406  0811                     	;# 
   407  0812                     	;# 
   408  0813                     	;# 
   409  0814                     	;# 
   410  081A                     	;# 
   411  081B                     	;# 
   412  081C                     	;# 
   413  081D                     	;# 
   414  081E                     	;# 
   415  081F                     	;# 
   416  088C                     	;# 
   417  088D                     	;# 
   418  088E                     	;# 
   419  088F                     	;# 
   420  0890                     	;# 
   421  0891                     	;# 
   422  0892                     	;# 
   423  0893                     	;# 
   424  0895                     	;# 
   425  0896                     	;# 
   426  0897                     	;# 
   427  0898                     	;# 
   428  0899                     	;# 
   429  089A                     	;# 
   430  089B                     	;# 
   431  090C                     	;# 
   432  090E                     	;# 
   433  090F                     	;# 
   434  091F                     	;# 
   435  098F                     	;# 
   436  098F                     	;# 
   437  0990                     	;# 
   438  0991                     	;# 
   439  0992                     	;# 
   440  0993                     	;# 
   441  0994                     	;# 
   442  0995                     	;# 
   443  0996                     	;# 
   444  0997                     	;# 
   445  0E0F                     	;# 
   446  0E10                     	;# 
   447  0E11                     	;# 
   448  0E12                     	;# 
   449  0E13                     	;# 
   450  0E14                     	;# 
   451  0E15                     	;# 
   452  0E16                     	;# 
   453  0E17                     	;# 
   454  0E18                     	;# 
   455  0E19                     	;# 
   456  0E1A                     	;# 
   457  0E1B                     	;# 
   458  0E1C                     	;# 
   459  0E1D                     	;# 
   460  0E1E                     	;# 
   461  0E1F                     	;# 
   462  0E20                     	;# 
   463  0E21                     	;# 
   464  0E22                     	;# 
   465  0E23                     	;# 
   466  0E24                     	;# 
   467  0E25                     	;# 
   468  0E26                     	;# 
   469  0E27                     	;# 
   470  0E28                     	;# 
   471  0E29                     	;# 
   472  0E2A                     	;# 
   473  0E2B                     	;# 
   474  0E2C                     	;# 
   475  0E2D                     	;# 
   476  0E2E                     	;# 
   477  0E2F                     	;# 
   478  0E30                     	;# 
   479  0E31                     	;# 
   480  0E32                     	;# 
   481  0E33                     	;# 
   482  0E34                     	;# 
   483  0E35                     	;# 
   484  0E36                     	;# 
   485  0E37                     	;# 
   486  0E8F                     	;# 
   487  0E90                     	;# 
   488  0E91                     	;# 
   489  0E92                     	;# 
   490  0E93                     	;# 
   491  0E94                     	;# 
   492  0E95                     	;# 
   493  0E96                     	;# 
   494  0E97                     	;# 
   495  0E9C                     	;# 
   496  0E9D                     	;# 
   497  0E9E                     	;# 
   498  0EA1                     	;# 
   499  0EA2                     	;# 
   500  0EA3                     	;# 
   501  0EA4                     	;# 
   502  0EA5                     	;# 
   503  0EA9                     	;# 
   504  0EAA                     	;# 
   505  0EAB                     	;# 
   506  0EAC                     	;# 
   507  0EB1                     	;# 
   508  0EB2                     	;# 
   509  0EB3                     	;# 
   510  0EB8                     	;# 
   511  0EB9                     	;# 
   512  0EBA                     	;# 
   513  0EBB                     	;# 
   514  0EBC                     	;# 
   515  0EBD                     	;# 
   516  0EBE                     	;# 
   517  0EC3                     	;# 
   518  0EC5                     	;# 
   519  0EC6                     	;# 
   520  0EC7                     	;# 
   521  0EC8                     	;# 
   522  0EC9                     	;# 
   523  0ECA                     	;# 
   524  0ECB                     	;# 
   525  0ECC                     	;# 
   526  0F10                     	;# 
   527  0F11                     	;# 
   528  0F12                     	;# 
   529  0F13                     	;# 
   530  0F14                     	;# 
   531  0F15                     	;# 
   532  0F16                     	;# 
   533  0F17                     	;# 
   534  0F18                     	;# 
   535  0F19                     	;# 
   536  0F1A                     	;# 
   537  0F1B                     	;# 
   538  0F1C                     	;# 
   539  0F1D                     	;# 
   540  0F1E                     	;# 
   541  0F1F                     	;# 
   542  0F20                     	;# 
   543  0F21                     	;# 
   544  0F22                     	;# 
   545  0F23                     	;# 
   546  0F24                     	;# 
   547  0F25                     	;# 
   548  0F26                     	;# 
   549  0F27                     	;# 
   550  0F38                     	;# 
   551  0F39                     	;# 
   552  0F3A                     	;# 
   553  0F3B                     	;# 
   554  0F3C                     	;# 
   555  0F3D                     	;# 
   556  0F3E                     	;# 
   557  0F3F                     	;# 
   558  0F40                     	;# 
   559  0F41                     	;# 
   560  0F43                     	;# 
   561  0F44                     	;# 
   562  0F45                     	;# 
   563  0F46                     	;# 
   564  0F47                     	;# 
   565  0F48                     	;# 
   566  0F49                     	;# 
   567  0F4A                     	;# 
   568  0F4B                     	;# 
   569  0F4C                     	;# 
   570  0F4E                     	;# 
   571  0F4F                     	;# 
   572  0F50                     	;# 
   573  0F51                     	;# 
   574  0F52                     	;# 
   575  0F53                     	;# 
   576  0F54                     	;# 
   577  0F55                     	;# 
   578  0F56                     	;# 
   579  0F57                     	;# 
   580  0F65                     	;# 
   581  0F68                     	;# 
   582  0F69                     	;# 
   583  0F6A                     	;# 
   584  0F6B                     	;# 
   585  0FE4                     	;# 
   586  0FE5                     	;# 
   587  0FE6                     	;# 
   588  0FE7                     	;# 
   589  0FE8                     	;# 
   590  0FE9                     	;# 
   591  0FEA                     	;# 
   592  0FEB                     	;# 
   593  0FED                     	;# 
   594  0FEE                     	;# 
   595  0FEF                     	;# 
   596  0000                     	;# 
   597  0001                     	;# 
   598  0002                     	;# 
   599  0003                     	;# 
   600  0004                     	;# 
   601  0005                     	;# 
   602  0006                     	;# 
   603  0007                     	;# 
   604  0008                     	;# 
   605  0009                     	;# 
   606  000A                     	;# 
   607  000B                     	;# 
   608  000C                     	;# 
   609  000D                     	;# 
   610  000E                     	;# 
   611  0010                     	;# 
   612  0011                     	;# 
   613  0012                     	;# 
   614  0013                     	;# 
   615  0016                     	;# 
   616  0017                     	;# 
   617  0018                     	;# 
   618  001C                     	;# 
   619  001C                     	;# 
   620  001D                     	;# 
   621  001D                     	;# 
   622  001E                     	;# 
   623  001F                     	;# 
   624  008C                     	;# 
   625  008C                     	;# 
   626  008D                     	;# 
   627  008E                     	;# 
   628  008E                     	;# 
   629  008F                     	;# 
   630  0090                     	;# 
   631  0090                     	;# 
   632  0091                     	;# 
   633  0093                     	;# 
   634  0094                     	;# 
   635  0095                     	;# 
   636  0096                     	;# 
   637  0097                     	;# 
   638  0098                     	;# 
   639  0099                     	;# 
   640  009A                     	;# 
   641  009B                     	;# 
   642  009C                     	;# 
   643  009D                     	;# 
   644  009E                     	;# 
   645  010C                     	;# 
   646  010D                     	;# 
   647  010E                     	;# 
   648  010E                     	;# 
   649  010F                     	;# 
   650  0110                     	;# 
   651  0110                     	;# 
   652  0111                     	;# 
   653  0112                     	;# 
   654  0112                     	;# 
   655  0113                     	;# 
   656  0114                     	;# 
   657  0114                     	;# 
   658  0115                     	;# 
   659  0116                     	;# 
   660  0116                     	;# 
   661  0117                     	;# 
   662  0119                     	;# 
   663  0119                     	;# 
   664  0119                     	;# 
   665  011A                     	;# 
   666  011A                     	;# 
   667  011A                     	;# 
   668  011B                     	;# 
   669  011B                     	;# 
   670  011B                     	;# 
   671  011B                     	;# 
   672  011B                     	;# 
   673  011C                     	;# 
   674  011C                     	;# 
   675  011C                     	;# 
   676  011D                     	;# 
   677  011D                     	;# 
   678  011D                     	;# 
   679  011E                     	;# 
   680  011E                     	;# 
   681  011E                     	;# 
   682  011F                     	;# 
   683  011F                     	;# 
   684  011F                     	;# 
   685  011F                     	;# 
   686  011F                     	;# 
   687  018C                     	;# 
   688  018D                     	;# 
   689  018E                     	;# 
   690  018F                     	;# 
   691  0190                     	;# 
   692  0191                     	;# 
   693  0192                     	;# 
   694  0196                     	;# 
   695  0197                     	;# 
   696  0198                     	;# 
   697  0199                     	;# 
   698  019A                     	;# 
   699  019B                     	;# 
   700  019C                     	;# 
   701  020C                     	;# 
   702  020C                     	;# 
   703  020D                     	;# 
   704  020E                     	;# 
   705  020F                     	;# 
   706  020F                     	;# 
   707  0210                     	;# 
   708  0210                     	;# 
   709  0211                     	;# 
   710  0211                     	;# 
   711  0212                     	;# 
   712  0212                     	;# 
   713  0213                     	;# 
   714  0214                     	;# 
   715  0215                     	;# 
   716  0215                     	;# 
   717  0216                     	;# 
   718  0216                     	;# 
   719  0217                     	;# 
   720  0217                     	;# 
   721  0218                     	;# 
   722  0218                     	;# 
   723  0219                     	;# 
   724  021A                     	;# 
   725  021B                     	;# 
   726  021B                     	;# 
   727  021C                     	;# 
   728  021C                     	;# 
   729  021D                     	;# 
   730  021D                     	;# 
   731  021E                     	;# 
   732  021F                     	;# 
   733  028C                     	;# 
   734  028C                     	;# 
   735  028D                     	;# 
   736  028D                     	;# 
   737  028E                     	;# 
   738  028F                     	;# 
   739  0290                     	;# 
   740  0290                     	;# 
   741  0291                     	;# 
   742  0292                     	;# 
   743  0292                     	;# 
   744  0293                     	;# 
   745  0293                     	;# 
   746  0294                     	;# 
   747  0295                     	;# 
   748  0296                     	;# 
   749  0296                     	;# 
   750  0297                     	;# 
   751  0298                     	;# 
   752  0298                     	;# 
   753  0299                     	;# 
   754  0299                     	;# 
   755  029A                     	;# 
   756  029B                     	;# 
   757  029C                     	;# 
   758  029C                     	;# 
   759  029D                     	;# 
   760  030C                     	;# 
   761  030C                     	;# 
   762  030D                     	;# 
   763  030E                     	;# 
   764  030F                     	;# 
   765  0310                     	;# 
   766  0310                     	;# 
   767  0311                     	;# 
   768  0312                     	;# 
   769  0313                     	;# 
   770  0314                     	;# 
   771  0314                     	;# 
   772  0315                     	;# 
   773  0316                     	;# 
   774  0317                     	;# 
   775  0318                     	;# 
   776  0318                     	;# 
   777  0319                     	;# 
   778  031A                     	;# 
   779  031B                     	;# 
   780  031C                     	;# 
   781  031C                     	;# 
   782  031D                     	;# 
   783  031E                     	;# 
   784  031F                     	;# 
   785  038C                     	;# 
   786  038C                     	;# 
   787  038D                     	;# 
   788  038E                     	;# 
   789  0390                     	;# 
   790  0390                     	;# 
   791  0391                     	;# 
   792  0392                     	;# 
   793  040C                     	;# 
   794  040D                     	;# 
   795  040E                     	;# 
   796  040F                     	;# 
   797  0410                     	;# 
   798  0411                     	;# 
   799  0416                     	;# 
   800  0416                     	;# 
   801  0417                     	;# 
   802  0418                     	;# 
   803  0418                     	;# 
   804  0419                     	;# 
   805  041A                     	;# 
   806  041A                     	;# 
   807  041B                     	;# 
   808  041C                     	;# 
   809  041C                     	;# 
   810  041D                     	;# 
   811  041E                     	;# 
   812  041F                     	;# 
   813  048C                     	;# 
   814  048C                     	;# 
   815  048D                     	;# 
   816  048E                     	;# 
   817  048F                     	;# 
   818  048F                     	;# 
   819  0490                     	;# 
   820  0491                     	;# 
   821  0492                     	;# 
   822  0492                     	;# 
   823  0493                     	;# 
   824  0494                     	;# 
   825  0495                     	;# 
   826  0495                     	;# 
   827  0496                     	;# 
   828  0497                     	;# 
   829  0498                     	;# 
   830  0499                     	;# 
   831  049A                     	;# 
   832  049B                     	;# 
   833  049C                     	;# 
   834  049D                     	;# 
   835  050C                     	;# 
   836  050C                     	;# 
   837  050D                     	;# 
   838  050E                     	;# 
   839  050F                     	;# 
   840  050F                     	;# 
   841  0510                     	;# 
   842  0511                     	;# 
   843  0512                     	;# 
   844  0512                     	;# 
   845  0513                     	;# 
   846  0514                     	;# 
   847  0515                     	;# 
   848  0515                     	;# 
   849  0516                     	;# 
   850  0517                     	;# 
   851  0518                     	;# 
   852  0519                     	;# 
   853  051A                     	;# 
   854  051B                     	;# 
   855  051C                     	;# 
   856  051D                     	;# 
   857  058C                     	;# 
   858  058C                     	;# 
   859  058D                     	;# 
   860  058E                     	;# 
   861  058F                     	;# 
   862  058F                     	;# 
   863  0590                     	;# 
   864  0591                     	;# 
   865  0592                     	;# 
   866  0593                     	;# 
   867  060C                     	;# 
   868  060D                     	;# 
   869  060E                     	;# 
   870  060F                     	;# 
   871  0610                     	;# 
   872  0611                     	;# 
   873  0612                     	;# 
   874  0613                     	;# 
   875  0614                     	;# 
   876  0616                     	;# 
   877  0617                     	;# 
   878  0618                     	;# 
   879  0619                     	;# 
   880  061A                     	;# 
   881  061B                     	;# 
   882  061C                     	;# 
   883  061D                     	;# 
   884  061E                     	;# 
   885  068C                     	;# 
   886  068D                     	;# 
   887  068E                     	;# 
   888  068F                     	;# 
   889  0690                     	;# 
   890  0691                     	;# 
   891  0692                     	;# 
   892  0693                     	;# 
   893  0694                     	;# 
   894  070C                     	;# 
   895  070D                     	;# 
   896  070E                     	;# 
   897  070F                     	;# 
   898  0710                     	;# 
   899  0711                     	;# 
   900  0712                     	;# 
   901  0713                     	;# 
   902  0714                     	;# 
   903  0716                     	;# 
   904  0717                     	;# 
   905  0718                     	;# 
   906  0719                     	;# 
   907  071A                     	;# 
   908  071B                     	;# 
   909  071C                     	;# 
   910  071D                     	;# 
   911  071E                     	;# 
   912  0796                     	;# 
   913  0797                     	;# 
   914  0798                     	;# 
   915  0799                     	;# 
   916  079A                     	;# 
   917  079B                     	;# 
   918  080C                     	;# 
   919  080D                     	;# 
   920  080E                     	;# 
   921  080F                     	;# 
   922  0810                     	;# 
   923  0811                     	;# 
   924  0812                     	;# 
   925  0813                     	;# 
   926  0814                     	;# 
   927  081A                     	;# 
   928  081B                     	;# 
   929  081C                     	;# 
   930  081D                     	;# 
   931  081E                     	;# 
   932  081F                     	;# 
   933  088C                     	;# 
   934  088D                     	;# 
   935  088E                     	;# 
   936  088F                     	;# 
   937  0890                     	;# 
   938  0891                     	;# 
   939  0892                     	;# 
   940  0893                     	;# 
   941  0895                     	;# 
   942  0896                     	;# 
   943  0897                     	;# 
   944  0898                     	;# 
   945  0899                     	;# 
   946  089A                     	;# 
   947  089B                     	;# 
   948  090C                     	;# 
   949  090E                     	;# 
   950  090F                     	;# 
   951  091F                     	;# 
   952  098F                     	;# 
   953  098F                     	;# 
   954  0990                     	;# 
   955  0991                     	;# 
   956  0992                     	;# 
   957  0993                     	;# 
   958  0994                     	;# 
   959  0995                     	;# 
   960  0996                     	;# 
   961  0997                     	;# 
   962  0E0F                     	;# 
   963  0E10                     	;# 
   964  0E11                     	;# 
   965  0E12                     	;# 
   966  0E13                     	;# 
   967  0E14                     	;# 
   968  0E15                     	;# 
   969  0E16                     	;# 
   970  0E17                     	;# 
   971  0E18                     	;# 
   972  0E19                     	;# 
   973  0E1A                     	;# 
   974  0E1B                     	;# 
   975  0E1C                     	;# 
   976  0E1D                     	;# 
   977  0E1E                     	;# 
   978  0E1F                     	;# 
   979  0E20                     	;# 
   980  0E21                     	;# 
   981  0E22                     	;# 
   982  0E23                     	;# 
   983  0E24                     	;# 
   984  0E25                     	;# 
   985  0E26                     	;# 
   986  0E27                     	;# 
   987  0E28                     	;# 
   988  0E29                     	;# 
   989  0E2A                     	;# 
   990  0E2B                     	;# 
   991  0E2C                     	;# 
   992  0E2D                     	;# 
   993  0E2E                     	;# 
   994  0E2F                     	;# 
   995  0E30                     	;# 
   996  0E31                     	;# 
   997  0E32                     	;# 
   998  0E33                     	;# 
   999  0E34                     	;# 
  1000  0E35                     	;# 
  1001  0E36                     	;# 
  1002  0E37                     	;# 
  1003  0E8F                     	;# 
  1004  0E90                     	;# 
  1005  0E91                     	;# 
  1006  0E92                     	;# 
  1007  0E93                     	;# 
  1008  0E94                     	;# 
  1009  0E95                     	;# 
  1010  0E96                     	;# 
  1011  0E97                     	;# 
  1012  0E9C                     	;# 
  1013  0E9D                     	;# 
  1014  0E9E                     	;# 
  1015  0EA1                     	;# 
  1016  0EA2                     	;# 
  1017  0EA3                     	;# 
  1018  0EA4                     	;# 
  1019  0EA5                     	;# 
  1020  0EA9                     	;# 
  1021  0EAA                     	;# 
  1022  0EAB                     	;# 
  1023  0EAC                     	;# 
  1024  0EB1                     	;# 
  1025  0EB2                     	;# 
  1026  0EB3                     	;# 
  1027  0EB8                     	;# 
  1028  0EB9                     	;# 
  1029  0EBA                     	;# 
  1030  0EBB                     	;# 
  1031  0EBC                     	;# 
  1032  0EBD                     	;# 
  1033  0EBE                     	;# 
  1034  0EC3                     	;# 
  1035  0EC5                     	;# 
  1036  0EC6                     	;# 
  1037  0EC7                     	;# 
  1038  0EC8                     	;# 
  1039  0EC9                     	;# 
  1040  0ECA                     	;# 
  1041  0ECB                     	;# 
  1042  0ECC                     	;# 
  1043  0F10                     	;# 
  1044  0F11                     	;# 
  1045  0F12                     	;# 
  1046  0F13                     	;# 
  1047  0F14                     	;# 
  1048  0F15                     	;# 
  1049  0F16                     	;# 
  1050  0F17                     	;# 
  1051  0F18                     	;# 
  1052  0F19                     	;# 
  1053  0F1A                     	;# 
  1054  0F1B                     	;# 
  1055  0F1C                     	;# 
  1056  0F1D                     	;# 
  1057  0F1E                     	;# 
  1058  0F1F                     	;# 
  1059  0F20                     	;# 
  1060  0F21                     	;# 
  1061  0F22                     	;# 
  1062  0F23                     	;# 
  1063  0F24                     	;# 
  1064  0F25                     	;# 
  1065  0F26                     	;# 
  1066  0F27                     	;# 
  1067  0F38                     	;# 
  1068  0F39                     	;# 
  1069  0F3A                     	;# 
  1070  0F3B                     	;# 
  1071  0F3C                     	;# 
  1072  0F3D                     	;# 
  1073  0F3E                     	;# 
  1074  0F3F                     	;# 
  1075  0F40                     	;# 
  1076  0F41                     	;# 
  1077  0F43                     	;# 
  1078  0F44                     	;# 
  1079  0F45                     	;# 
  1080  0F46                     	;# 
  1081  0F47                     	;# 
  1082  0F48                     	;# 
  1083  0F49                     	;# 
  1084  0F4A                     	;# 
  1085  0F4B                     	;# 
  1086  0F4C                     	;# 
  1087  0F4E                     	;# 
  1088  0F4F                     	;# 
  1089  0F50                     	;# 
  1090  0F51                     	;# 
  1091  0F52                     	;# 
  1092  0F53                     	;# 
  1093  0F54                     	;# 
  1094  0F55                     	;# 
  1095  0F56                     	;# 
  1096  0F57                     	;# 
  1097  0F65                     	;# 
  1098  0F68                     	;# 
  1099  0F69                     	;# 
  1100  0F6A                     	;# 
  1101  0F6B                     	;# 
  1102  0FE4                     	;# 
  1103  0FE5                     	;# 
  1104  0FE6                     	;# 
  1105  0FE7                     	;# 
  1106  0FE8                     	;# 
  1107  0FE9                     	;# 
  1108  0FEA                     	;# 
  1109  0FEB                     	;# 
  1110  0FED                     	;# 
  1111  0FEE                     	;# 
  1112  0FEF                     	;# 
  1113  0000                     	;# 
  1114  0001                     	;# 
  1115  0002                     	;# 
  1116  0003                     	;# 
  1117  0004                     	;# 
  1118  0005                     	;# 
  1119  0006                     	;# 
  1120  0007                     	;# 
  1121  0008                     	;# 
  1122  0009                     	;# 
  1123  000A                     	;# 
  1124  000B                     	;# 
  1125  000C                     	;# 
  1126  000D                     	;# 
  1127  000E                     	;# 
  1128  0010                     	;# 
  1129  0011                     	;# 
  1130  0012                     	;# 
  1131  0013                     	;# 
  1132  0016                     	;# 
  1133  0017                     	;# 
  1134  0018                     	;# 
  1135  001C                     	;# 
  1136  001C                     	;# 
  1137  001D                     	;# 
  1138  001D                     	;# 
  1139  001E                     	;# 
  1140  001F                     	;# 
  1141  008C                     	;# 
  1142  008C                     	;# 
  1143  008D                     	;# 
  1144  008E                     	;# 
  1145  008E                     	;# 
  1146  008F                     	;# 
  1147  0090                     	;# 
  1148  0090                     	;# 
  1149  0091                     	;# 
  1150  0093                     	;# 
  1151  0094                     	;# 
  1152  0095                     	;# 
  1153  0096                     	;# 
  1154  0097                     	;# 
  1155  0098                     	;# 
  1156  0099                     	;# 
  1157  009A                     	;# 
  1158  009B                     	;# 
  1159  009C                     	;# 
  1160  009D                     	;# 
  1161  009E                     	;# 
  1162  010C                     	;# 
  1163  010D                     	;# 
  1164  010E                     	;# 
  1165  010E                     	;# 
  1166  010F                     	;# 
  1167  0110                     	;# 
  1168  0110                     	;# 
  1169  0111                     	;# 
  1170  0112                     	;# 
  1171  0112                     	;# 
  1172  0113                     	;# 
  1173  0114                     	;# 
  1174  0114                     	;# 
  1175  0115                     	;# 
  1176  0116                     	;# 
  1177  0116                     	;# 
  1178  0117                     	;# 
  1179  0119                     	;# 
  1180  0119                     	;# 
  1181  0119                     	;# 
  1182  011A                     	;# 
  1183  011A                     	;# 
  1184  011A                     	;# 
  1185  011B                     	;# 
  1186  011B                     	;# 
  1187  011B                     	;# 
  1188  011B                     	;# 
  1189  011B                     	;# 
  1190  011C                     	;# 
  1191  011C                     	;# 
  1192  011C                     	;# 
  1193  011D                     	;# 
  1194  011D                     	;# 
  1195  011D                     	;# 
  1196  011E                     	;# 
  1197  011E                     	;# 
  1198  011E                     	;# 
  1199  011F                     	;# 
  1200  011F                     	;# 
  1201  011F                     	;# 
  1202  011F                     	;# 
  1203  011F                     	;# 
  1204  018C                     	;# 
  1205  018D                     	;# 
  1206  018E                     	;# 
  1207  018F                     	;# 
  1208  0190                     	;# 
  1209  0191                     	;# 
  1210  0192                     	;# 
  1211  0196                     	;# 
  1212  0197                     	;# 
  1213  0198                     	;# 
  1214  0199                     	;# 
  1215  019A                     	;# 
  1216  019B                     	;# 
  1217  019C                     	;# 
  1218  020C                     	;# 
  1219  020C                     	;# 
  1220  020D                     	;# 
  1221  020E                     	;# 
  1222  020F                     	;# 
  1223  020F                     	;# 
  1224  0210                     	;# 
  1225  0210                     	;# 
  1226  0211                     	;# 
  1227  0211                     	;# 
  1228  0212                     	;# 
  1229  0212                     	;# 
  1230  0213                     	;# 
  1231  0214                     	;# 
  1232  0215                     	;# 
  1233  0215                     	;# 
  1234  0216                     	;# 
  1235  0216                     	;# 
  1236  0217                     	;# 
  1237  0217                     	;# 
  1238  0218                     	;# 
  1239  0218                     	;# 
  1240  0219                     	;# 
  1241  021A                     	;# 
  1242  021B                     	;# 
  1243  021B                     	;# 
  1244  021C                     	;# 
  1245  021C                     	;# 
  1246  021D                     	;# 
  1247  021D                     	;# 
  1248  021E                     	;# 
  1249  021F                     	;# 
  1250  028C                     	;# 
  1251  028C                     	;# 
  1252  028D                     	;# 
  1253  028D                     	;# 
  1254  028E                     	;# 
  1255  028F                     	;# 
  1256  0290                     	;# 
  1257  0290                     	;# 
  1258  0291                     	;# 
  1259  0292                     	;# 
  1260  0292                     	;# 
  1261  0293                     	;# 
  1262  0293                     	;# 
  1263  0294                     	;# 
  1264  0295                     	;# 
  1265  0296                     	;# 
  1266  0296                     	;# 
  1267  0297                     	;# 
  1268  0298                     	;# 
  1269  0298                     	;# 
  1270  0299                     	;# 
  1271  0299                     	;# 
  1272  029A                     	;# 
  1273  029B                     	;# 
  1274  029C                     	;# 
  1275  029C                     	;# 
  1276  029D                     	;# 
  1277  030C                     	;# 
  1278  030C                     	;# 
  1279  030D                     	;# 
  1280  030E                     	;# 
  1281  030F                     	;# 
  1282  0310                     	;# 
  1283  0310                     	;# 
  1284  0311                     	;# 
  1285  0312                     	;# 
  1286  0313                     	;# 
  1287  0314                     	;# 
  1288  0314                     	;# 
  1289  0315                     	;# 
  1290  0316                     	;# 
  1291  0317                     	;# 
  1292  0318                     	;# 
  1293  0318                     	;# 
  1294  0319                     	;# 
  1295  031A                     	;# 
  1296  031B                     	;# 
  1297  031C                     	;# 
  1298  031C                     	;# 
  1299  031D                     	;# 
  1300  031E                     	;# 
  1301  031F                     	;# 
  1302  038C                     	;# 
  1303  038C                     	;# 
  1304  038D                     	;# 
  1305  038E                     	;# 
  1306  0390                     	;# 
  1307  0390                     	;# 
  1308  0391                     	;# 
  1309  0392                     	;# 
  1310  040C                     	;# 
  1311  040D                     	;# 
  1312  040E                     	;# 
  1313  040F                     	;# 
  1314  0410                     	;# 
  1315  0411                     	;# 
  1316  0416                     	;# 
  1317  0416                     	;# 
  1318  0417                     	;# 
  1319  0418                     	;# 
  1320  0418                     	;# 
  1321  0419                     	;# 
  1322  041A                     	;# 
  1323  041A                     	;# 
  1324  041B                     	;# 
  1325  041C                     	;# 
  1326  041C                     	;# 
  1327  041D                     	;# 
  1328  041E                     	;# 
  1329  041F                     	;# 
  1330  048C                     	;# 
  1331  048C                     	;# 
  1332  048D                     	;# 
  1333  048E                     	;# 
  1334  048F                     	;# 
  1335  048F                     	;# 
  1336  0490                     	;# 
  1337  0491                     	;# 
  1338  0492                     	;# 
  1339  0492                     	;# 
  1340  0493                     	;# 
  1341  0494                     	;# 
  1342  0495                     	;# 
  1343  0495                     	;# 
  1344  0496                     	;# 
  1345  0497                     	;# 
  1346  0498                     	;# 
  1347  0499                     	;# 
  1348  049A                     	;# 
  1349  049B                     	;# 
  1350  049C                     	;# 
  1351  049D                     	;# 
  1352  050C                     	;# 
  1353  050C                     	;# 
  1354  050D                     	;# 
  1355  050E                     	;# 
  1356  050F                     	;# 
  1357  050F                     	;# 
  1358  0510                     	;# 
  1359  0511                     	;# 
  1360  0512                     	;# 
  1361  0512                     	;# 
  1362  0513                     	;# 
  1363  0514                     	;# 
  1364  0515                     	;# 
  1365  0515                     	;# 
  1366  0516                     	;# 
  1367  0517                     	;# 
  1368  0518                     	;# 
  1369  0519                     	;# 
  1370  051A                     	;# 
  1371  051B                     	;# 
  1372  051C                     	;# 
  1373  051D                     	;# 
  1374  058C                     	;# 
  1375  058C                     	;# 
  1376  058D                     	;# 
  1377  058E                     	;# 
  1378  058F                     	;# 
  1379  058F                     	;# 
  1380  0590                     	;# 
  1381  0591                     	;# 
  1382  0592                     	;# 
  1383  0593                     	;# 
  1384  060C                     	;# 
  1385  060D                     	;# 
  1386  060E                     	;# 
  1387  060F                     	;# 
  1388  0610                     	;# 
  1389  0611                     	;# 
  1390  0612                     	;# 
  1391  0613                     	;# 
  1392  0614                     	;# 
  1393  0616                     	;# 
  1394  0617                     	;# 
  1395  0618                     	;# 
  1396  0619                     	;# 
  1397  061A                     	;# 
  1398  061B                     	;# 
  1399  061C                     	;# 
  1400  061D                     	;# 
  1401  061E                     	;# 
  1402  068C                     	;# 
  1403  068D                     	;# 
  1404  068E                     	;# 
  1405  068F                     	;# 
  1406  0690                     	;# 
  1407  0691                     	;# 
  1408  0692                     	;# 
  1409  0693                     	;# 
  1410  0694                     	;# 
  1411  070C                     	;# 
  1412  070D                     	;# 
  1413  070E                     	;# 
  1414  070F                     	;# 
  1415  0710                     	;# 
  1416  0711                     	;# 
  1417  0712                     	;# 
  1418  0713                     	;# 
  1419  0714                     	;# 
  1420  0716                     	;# 
  1421  0717                     	;# 
  1422  0718                     	;# 
  1423  0719                     	;# 
  1424  071A                     	;# 
  1425  071B                     	;# 
  1426  071C                     	;# 
  1427  071D                     	;# 
  1428  071E                     	;# 
  1429  0796                     	;# 
  1430  0797                     	;# 
  1431  0798                     	;# 
  1432  0799                     	;# 
  1433  079A                     	;# 
  1434  079B                     	;# 
  1435  080C                     	;# 
  1436  080D                     	;# 
  1437  080E                     	;# 
  1438  080F                     	;# 
  1439  0810                     	;# 
  1440  0811                     	;# 
  1441  0812                     	;# 
  1442  0813                     	;# 
  1443  0814                     	;# 
  1444  081A                     	;# 
  1445  081B                     	;# 
  1446  081C                     	;# 
  1447  081D                     	;# 
  1448  081E                     	;# 
  1449  081F                     	;# 
  1450  088C                     	;# 
  1451  088D                     	;# 
  1452  088E                     	;# 
  1453  088F                     	;# 
  1454  0890                     	;# 
  1455  0891                     	;# 
  1456  0892                     	;# 
  1457  0893                     	;# 
  1458  0895                     	;# 
  1459  0896                     	;# 
  1460  0897                     	;# 
  1461  0898                     	;# 
  1462  0899                     	;# 
  1463  089A                     	;# 
  1464  089B                     	;# 
  1465  090C                     	;# 
  1466  090E                     	;# 
  1467  090F                     	;# 
  1468  091F                     	;# 
  1469  098F                     	;# 
  1470  098F                     	;# 
  1471  0990                     	;# 
  1472  0991                     	;# 
  1473  0992                     	;# 
  1474  0993                     	;# 
  1475  0994                     	;# 
  1476  0995                     	;# 
  1477  0996                     	;# 
  1478  0997                     	;# 
  1479  0E0F                     	;# 
  1480  0E10                     	;# 
  1481  0E11                     	;# 
  1482  0E12                     	;# 
  1483  0E13                     	;# 
  1484  0E14                     	;# 
  1485  0E15                     	;# 
  1486  0E16                     	;# 
  1487  0E17                     	;# 
  1488  0E18                     	;# 
  1489  0E19                     	;# 
  1490  0E1A                     	;# 
  1491  0E1B                     	;# 
  1492  0E1C                     	;# 
  1493  0E1D                     	;# 
  1494  0E1E                     	;# 
  1495  0E1F                     	;# 
  1496  0E20                     	;# 
  1497  0E21                     	;# 
  1498  0E22                     	;# 
  1499  0E23                     	;# 
  1500  0E24                     	;# 
  1501  0E25                     	;# 
  1502  0E26                     	;# 
  1503  0E27                     	;# 
  1504  0E28                     	;# 
  1505  0E29                     	;# 
  1506  0E2A                     	;# 
  1507  0E2B                     	;# 
  1508  0E2C                     	;# 
  1509  0E2D                     	;# 
  1510  0E2E                     	;# 
  1511  0E2F                     	;# 
  1512  0E30                     	;# 
  1513  0E31                     	;# 
  1514  0E32                     	;# 
  1515  0E33                     	;# 
  1516  0E34                     	;# 
  1517  0E35                     	;# 
  1518  0E36                     	;# 
  1519  0E37                     	;# 
  1520  0E8F                     	;# 
  1521  0E90                     	;# 
  1522  0E91                     	;# 
  1523  0E92                     	;# 
  1524  0E93                     	;# 
  1525  0E94                     	;# 
  1526  0E95                     	;# 
  1527  0E96                     	;# 
  1528  0E97                     	;# 
  1529  0E9C                     	;# 
  1530  0E9D                     	;# 
  1531  0E9E                     	;# 
  1532  0EA1                     	;# 
  1533  0EA2                     	;# 
  1534  0EA3                     	;# 
  1535  0EA4                     	;# 
  1536  0EA5                     	;# 
  1537  0EA9                     	;# 
  1538  0EAA                     	;# 
  1539  0EAB                     	;# 
  1540  0EAC                     	;# 
  1541  0EB1                     	;# 
  1542  0EB2                     	;# 
  1543  0EB3                     	;# 
  1544  0EB8                     	;# 
  1545  0EB9                     	;# 
  1546  0EBA                     	;# 
  1547  0EBB                     	;# 
  1548  0EBC                     	;# 
  1549  0EBD                     	;# 
  1550  0EBE                     	;# 
  1551  0EC3                     	;# 
  1552  0EC5                     	;# 
  1553  0EC6                     	;# 
  1554  0EC7                     	;# 
  1555  0EC8                     	;# 
  1556  0EC9                     	;# 
  1557  0ECA                     	;# 
  1558  0ECB                     	;# 
  1559  0ECC                     	;# 
  1560  0F10                     	;# 
  1561  0F11                     	;# 
  1562  0F12                     	;# 
  1563  0F13                     	;# 
  1564  0F14                     	;# 
  1565  0F15                     	;# 
  1566  0F16                     	;# 
  1567  0F17                     	;# 
  1568  0F18                     	;# 
  1569  0F19                     	;# 
  1570  0F1A                     	;# 
  1571  0F1B                     	;# 
  1572  0F1C                     	;# 
  1573  0F1D                     	;# 
  1574  0F1E                     	;# 
  1575  0F1F                     	;# 
  1576  0F20                     	;# 
  1577  0F21                     	;# 
  1578  0F22                     	;# 
  1579  0F23                     	;# 
  1580  0F24                     	;# 
  1581  0F25                     	;# 
  1582  0F26                     	;# 
  1583  0F27                     	;# 
  1584  0F38                     	;# 
  1585  0F39                     	;# 
  1586  0F3A                     	;# 
  1587  0F3B                     	;# 
  1588  0F3C                     	;# 
  1589  0F3D                     	;# 
  1590  0F3E                     	;# 
  1591  0F3F                     	;# 
  1592  0F40                     	;# 
  1593  0F41                     	;# 
  1594  0F43                     	;# 
  1595  0F44                     	;# 
  1596  0F45                     	;# 
  1597  0F46                     	;# 
  1598  0F47                     	;# 
  1599  0F48                     	;# 
  1600  0F49                     	;# 
  1601  0F4A                     	;# 
  1602  0F4B                     	;# 
  1603  0F4C                     	;# 
  1604  0F4E                     	;# 
  1605  0F4F                     	;# 
  1606  0F50                     	;# 
  1607  0F51                     	;# 
  1608  0F52                     	;# 
  1609  0F53                     	;# 
  1610  0F54                     	;# 
  1611  0F55                     	;# 
  1612  0F56                     	;# 
  1613  0F57                     	;# 
  1614  0F65                     	;# 
  1615  0F68                     	;# 
  1616  0F69                     	;# 
  1617  0F6A                     	;# 
  1618  0F6B                     	;# 
  1619  0FE4                     	;# 
  1620  0FE5                     	;# 
  1621  0FE6                     	;# 
  1622  0FE7                     	;# 
  1623  0FE8                     	;# 
  1624  0FE9                     	;# 
  1625  0FEA                     	;# 
  1626  0FEB                     	;# 
  1627  0FED                     	;# 
  1628  0FEE                     	;# 
  1629  0FEF                     	;# 
  1630  0000                     	;# 
  1631  0001                     	;# 
  1632  0002                     	;# 
  1633  0003                     	;# 
  1634  0004                     	;# 
  1635  0005                     	;# 
  1636  0006                     	;# 
  1637  0007                     	;# 
  1638  0008                     	;# 
  1639  0009                     	;# 
  1640  000A                     	;# 
  1641  000B                     	;# 
  1642  000C                     	;# 
  1643  000D                     	;# 
  1644  000E                     	;# 
  1645  0010                     	;# 
  1646  0011                     	;# 
  1647  0012                     	;# 
  1648  0013                     	;# 
  1649  0016                     	;# 
  1650  0017                     	;# 
  1651  0018                     	;# 
  1652  001C                     	;# 
  1653  001C                     	;# 
  1654  001D                     	;# 
  1655  001D                     	;# 
  1656  001E                     	;# 
  1657  001F                     	;# 
  1658  008C                     	;# 
  1659  008C                     	;# 
  1660  008D                     	;# 
  1661  008E                     	;# 
  1662  008E                     	;# 
  1663  008F                     	;# 
  1664  0090                     	;# 
  1665  0090                     	;# 
  1666  0091                     	;# 
  1667  0093                     	;# 
  1668  0094                     	;# 
  1669  0095                     	;# 
  1670  0096                     	;# 
  1671  0097                     	;# 
  1672  0098                     	;# 
  1673  0099                     	;# 
  1674  009A                     	;# 
  1675  009B                     	;# 
  1676  009C                     	;# 
  1677  009D                     	;# 
  1678  009E                     	;# 
  1679  010C                     	;# 
  1680  010D                     	;# 
  1681  010E                     	;# 
  1682  010E                     	;# 
  1683  010F                     	;# 
  1684  0110                     	;# 
  1685  0110                     	;# 
  1686  0111                     	;# 
  1687  0112                     	;# 
  1688  0112                     	;# 
  1689  0113                     	;# 
  1690  0114                     	;# 
  1691  0114                     	;# 
  1692  0115                     	;# 
  1693  0116                     	;# 
  1694  0116                     	;# 
  1695  0117                     	;# 
  1696  0119                     	;# 
  1697  0119                     	;# 
  1698  0119                     	;# 
  1699  011A                     	;# 
  1700  011A                     	;# 
  1701  011A                     	;# 
  1702  011B                     	;# 
  1703  011B                     	;# 
  1704  011B                     	;# 
  1705  011B                     	;# 
  1706  011B                     	;# 
  1707  011C                     	;# 
  1708  011C                     	;# 
  1709  011C                     	;# 
  1710  011D                     	;# 
  1711  011D                     	;# 
  1712  011D                     	;# 
  1713  011E                     	;# 
  1714  011E                     	;# 
  1715  011E                     	;# 
  1716  011F                     	;# 
  1717  011F                     	;# 
  1718  011F                     	;# 
  1719  011F                     	;# 
  1720  011F                     	;# 
  1721  018C                     	;# 
  1722  018D                     	;# 
  1723  018E                     	;# 
  1724  018F                     	;# 
  1725  0190                     	;# 
  1726  0191                     	;# 
  1727  0192                     	;# 
  1728  0196                     	;# 
  1729  0197                     	;# 
  1730  0198                     	;# 
  1731  0199                     	;# 
  1732  019A                     	;# 
  1733  019B                     	;# 
  1734  019C                     	;# 
  1735  020C                     	;# 
  1736  020C                     	;# 
  1737  020D                     	;# 
  1738  020E                     	;# 
  1739  020F                     	;# 
  1740  020F                     	;# 
  1741  0210                     	;# 
  1742  0210                     	;# 
  1743  0211                     	;# 
  1744  0211                     	;# 
  1745  0212                     	;# 
  1746  0212                     	;# 
  1747  0213                     	;# 
  1748  0214                     	;# 
  1749  0215                     	;# 
  1750  0215                     	;# 
  1751  0216                     	;# 
  1752  0216                     	;# 
  1753  0217                     	;# 
  1754  0217                     	;# 
  1755  0218                     	;# 
  1756  0218                     	;# 
  1757  0219                     	;# 
  1758  021A                     	;# 
  1759  021B                     	;# 
  1760  021B                     	;# 
  1761  021C                     	;# 
  1762  021C                     	;# 
  1763  021D                     	;# 
  1764  021D                     	;# 
  1765  021E                     	;# 
  1766  021F                     	;# 
  1767  028C                     	;# 
  1768  028C                     	;# 
  1769  028D                     	;# 
  1770  028D                     	;# 
  1771  028E                     	;# 
  1772  028F                     	;# 
  1773  0290                     	;# 
  1774  0290                     	;# 
  1775  0291                     	;# 
  1776  0292                     	;# 
  1777  0292                     	;# 
  1778  0293                     	;# 
  1779  0293                     	;# 
  1780  0294                     	;# 
  1781  0295                     	;# 
  1782  0296                     	;# 
  1783  0296                     	;# 
  1784  0297                     	;# 
  1785  0298                     	;# 
  1786  0298                     	;# 
  1787  0299                     	;# 
  1788  0299                     	;# 
  1789  029A                     	;# 
  1790  029B                     	;# 
  1791  029C                     	;# 
  1792  029C                     	;# 
  1793  029D                     	;# 
  1794  030C                     	;# 
  1795  030C                     	;# 
  1796  030D                     	;# 
  1797  030E                     	;# 
  1798  030F                     	;# 
  1799  0310                     	;# 
  1800  0310                     	;# 
  1801  0311                     	;# 
  1802  0312                     	;# 
  1803  0313                     	;# 
  1804  0314                     	;# 
  1805  0314                     	;# 
  1806  0315                     	;# 
  1807  0316                     	;# 
  1808  0317                     	;# 
  1809  0318                     	;# 
  1810  0318                     	;# 
  1811  0319                     	;# 
  1812  031A                     	;# 
  1813  031B                     	;# 
  1814  031C                     	;# 
  1815  031C                     	;# 
  1816  031D                     	;# 
  1817  031E                     	;# 
  1818  031F                     	;# 
  1819  038C                     	;# 
  1820  038C                     	;# 
  1821  038D                     	;# 
  1822  038E                     	;# 
  1823  0390                     	;# 
  1824  0390                     	;# 
  1825  0391                     	;# 
  1826  0392                     	;# 
  1827  040C                     	;# 
  1828  040D                     	;# 
  1829  040E                     	;# 
  1830  040F                     	;# 
  1831  0410                     	;# 
  1832  0411                     	;# 
  1833  0416                     	;# 
  1834  0416                     	;# 
  1835  0417                     	;# 
  1836  0418                     	;# 
  1837  0418                     	;# 
  1838  0419                     	;# 
  1839  041A                     	;# 
  1840  041A                     	;# 
  1841  041B                     	;# 
  1842  041C                     	;# 
  1843  041C                     	;# 
  1844  041D                     	;# 
  1845  041E                     	;# 
  1846  041F                     	;# 
  1847  048C                     	;# 
  1848  048C                     	;# 
  1849  048D                     	;# 
  1850  048E                     	;# 
  1851  048F                     	;# 
  1852  048F                     	;# 
  1853  0490                     	;# 
  1854  0491                     	;# 
  1855  0492                     	;# 
  1856  0492                     	;# 
  1857  0493                     	;# 
  1858  0494                     	;# 
  1859  0495                     	;# 
  1860  0495                     	;# 
  1861  0496                     	;# 
  1862  0497                     	;# 
  1863  0498                     	;# 
  1864  0499                     	;# 
  1865  049A                     	;# 
  1866  049B                     	;# 
  1867  049C                     	;# 
  1868  049D                     	;# 
  1869  050C                     	;# 
  1870  050C                     	;# 
  1871  050D                     	;# 
  1872  050E                     	;# 
  1873  050F                     	;# 
  1874  050F                     	;# 
  1875  0510                     	;# 
  1876  0511                     	;# 
  1877  0512                     	;# 
  1878  0512                     	;# 
  1879  0513                     	;# 
  1880  0514                     	;# 
  1881  0515                     	;# 
  1882  0515                     	;# 
  1883  0516                     	;# 
  1884  0517                     	;# 
  1885  0518                     	;# 
  1886  0519                     	;# 
  1887  051A                     	;# 
  1888  051B                     	;# 
  1889  051C                     	;# 
  1890  051D                     	;# 
  1891  058C                     	;# 
  1892  058C                     	;# 
  1893  058D                     	;# 
  1894  058E                     	;# 
  1895  058F                     	;# 
  1896  058F                     	;# 
  1897  0590                     	;# 
  1898  0591                     	;# 
  1899  0592                     	;# 
  1900  0593                     	;# 
  1901  060C                     	;# 
  1902  060D                     	;# 
  1903  060E                     	;# 
  1904  060F                     	;# 
  1905  0610                     	;# 
  1906  0611                     	;# 
  1907  0612                     	;# 
  1908  0613                     	;# 
  1909  0614                     	;# 
  1910  0616                     	;# 
  1911  0617                     	;# 
  1912  0618                     	;# 
  1913  0619                     	;# 
  1914  061A                     	;# 
  1915  061B                     	;# 
  1916  061C                     	;# 
  1917  061D                     	;# 
  1918  061E                     	;# 
  1919  068C                     	;# 
  1920  068D                     	;# 
  1921  068E                     	;# 
  1922  068F                     	;# 
  1923  0690                     	;# 
  1924  0691                     	;# 
  1925  0692                     	;# 
  1926  0693                     	;# 
  1927  0694                     	;# 
  1928  070C                     	;# 
  1929  070D                     	;# 
  1930  070E                     	;# 
  1931  070F                     	;# 
  1932  0710                     	;# 
  1933  0711                     	;# 
  1934  0712                     	;# 
  1935  0713                     	;# 
  1936  0714                     	;# 
  1937  0716                     	;# 
  1938  0717                     	;# 
  1939  0718                     	;# 
  1940  0719                     	;# 
  1941  071A                     	;# 
  1942  071B                     	;# 
  1943  071C                     	;# 
  1944  071D                     	;# 
  1945  071E                     	;# 
  1946  0796                     	;# 
  1947  0797                     	;# 
  1948  0798                     	;# 
  1949  0799                     	;# 
  1950  079A                     	;# 
  1951  079B                     	;# 
  1952  080C                     	;# 
  1953  080D                     	;# 
  1954  080E                     	;# 
  1955  080F                     	;# 
  1956  0810                     	;# 
  1957  0811                     	;# 
  1958  0812                     	;# 
  1959  0813                     	;# 
  1960  0814                     	;# 
  1961  081A                     	;# 
  1962  081B                     	;# 
  1963  081C                     	;# 
  1964  081D                     	;# 
  1965  081E                     	;# 
  1966  081F                     	;# 
  1967  088C                     	;# 
  1968  088D                     	;# 
  1969  088E                     	;# 
  1970  088F                     	;# 
  1971  0890                     	;# 
  1972  0891                     	;# 
  1973  0892                     	;# 
  1974  0893                     	;# 
  1975  0895                     	;# 
  1976  0896                     	;# 
  1977  0897                     	;# 
  1978  0898                     	;# 
  1979  0899                     	;# 
  1980  089A                     	;# 
  1981  089B                     	;# 
  1982  090C                     	;# 
  1983  090E                     	;# 
  1984  090F                     	;# 
  1985  091F                     	;# 
  1986  098F                     	;# 
  1987  098F                     	;# 
  1988  0990                     	;# 
  1989  0991                     	;# 
  1990  0992                     	;# 
  1991  0993                     	;# 
  1992  0994                     	;# 
  1993  0995                     	;# 
  1994  0996                     	;# 
  1995  0997                     	;# 
  1996  0E0F                     	;# 
  1997  0E10                     	;# 
  1998  0E11                     	;# 
  1999  0E12                     	;# 
  2000  0E13                     	;# 
  2001  0E14                     	;# 
  2002  0E15                     	;# 
  2003  0E16                     	;# 
  2004  0E17                     	;# 
  2005  0E18                     	;# 
  2006  0E19                     	;# 
  2007  0E1A                     	;# 
  2008  0E1B                     	;# 
  2009  0E1C                     	;# 
  2010  0E1D                     	;# 
  2011  0E1E                     	;# 
  2012  0E1F                     	;# 
  2013  0E20                     	;# 
  2014  0E21                     	;# 
  2015  0E22                     	;# 
  2016  0E23                     	;# 
  2017  0E24                     	;# 
  2018  0E25                     	;# 
  2019  0E26                     	;# 
  2020  0E27                     	;# 
  2021  0E28                     	;# 
  2022  0E29                     	;# 
  2023  0E2A                     	;# 
  2024  0E2B                     	;# 
  2025  0E2C                     	;# 
  2026  0E2D                     	;# 
  2027  0E2E                     	;# 
  2028  0E2F                     	;# 
  2029  0E30                     	;# 
  2030  0E31                     	;# 
  2031  0E32                     	;# 
  2032  0E33                     	;# 
  2033  0E34                     	;# 
  2034  0E35                     	;# 
  2035  0E36                     	;# 
  2036  0E37                     	;# 
  2037  0E8F                     	;# 
  2038  0E90                     	;# 
  2039  0E91                     	;# 
  2040  0E92                     	;# 
  2041  0E93                     	;# 
  2042  0E94                     	;# 
  2043  0E95                     	;# 
  2044  0E96                     	;# 
  2045  0E97                     	;# 
  2046  0E9C                     	;# 
  2047  0E9D                     	;# 
  2048  0E9E                     	;# 
  2049  0EA1                     	;# 
  2050  0EA2                     	;# 
  2051  0EA3                     	;# 
  2052  0EA4                     	;# 
  2053  0EA5                     	;# 
  2054  0EA9                     	;# 
  2055  0EAA                     	;# 
  2056  0EAB                     	;# 
  2057  0EAC                     	;# 
  2058  0EB1                     	;# 
  2059  0EB2                     	;# 
  2060  0EB3                     	;# 
  2061  0EB8                     	;# 
  2062  0EB9                     	;# 
  2063  0EBA                     	;# 
  2064  0EBB                     	;# 
  2065  0EBC                     	;# 
  2066  0EBD                     	;# 
  2067  0EBE                     	;# 
  2068  0EC3                     	;# 
  2069  0EC5                     	;# 
  2070  0EC6                     	;# 
  2071  0EC7                     	;# 
  2072  0EC8                     	;# 
  2073  0EC9                     	;# 
  2074  0ECA                     	;# 
  2075  0ECB                     	;# 
  2076  0ECC                     	;# 
  2077  0F10                     	;# 
  2078  0F11                     	;# 
  2079  0F12                     	;# 
  2080  0F13                     	;# 
  2081  0F14                     	;# 
  2082  0F15                     	;# 
  2083  0F16                     	;# 
  2084  0F17                     	;# 
  2085  0F18                     	;# 
  2086  0F19                     	;# 
  2087  0F1A                     	;# 
  2088  0F1B                     	;# 
  2089  0F1C                     	;# 
  2090  0F1D                     	;# 
  2091  0F1E                     	;# 
  2092  0F1F                     	;# 
  2093  0F20                     	;# 
  2094  0F21                     	;# 
  2095  0F22                     	;# 
  2096  0F23                     	;# 
  2097  0F24                     	;# 
  2098  0F25                     	;# 
  2099  0F26                     	;# 
  2100  0F27                     	;# 
  2101  0F38                     	;# 
  2102  0F39                     	;# 
  2103  0F3A                     	;# 
  2104  0F3B                     	;# 
  2105  0F3C                     	;# 
  2106  0F3D                     	;# 
  2107  0F3E                     	;# 
  2108  0F3F                     	;# 
  2109  0F40                     	;# 
  2110  0F41                     	;# 
  2111  0F43                     	;# 
  2112  0F44                     	;# 
  2113  0F45                     	;# 
  2114  0F46                     	;# 
  2115  0F47                     	;# 
  2116  0F48                     	;# 
  2117  0F49                     	;# 
  2118  0F4A                     	;# 
  2119  0F4B                     	;# 
  2120  0F4C                     	;# 
  2121  0F4E                     	;# 
  2122  0F4F                     	;# 
  2123  0F50                     	;# 
  2124  0F51                     	;# 
  2125  0F52                     	;# 
  2126  0F53                     	;# 
  2127  0F54                     	;# 
  2128  0F55                     	;# 
  2129  0F56                     	;# 
  2130  0F57                     	;# 
  2131  0F65                     	;# 
  2132  0F68                     	;# 
  2133  0F69                     	;# 
  2134  0F6A                     	;# 
  2135  0F6B                     	;# 
  2136  0FE4                     	;# 
  2137  0FE5                     	;# 
  2138  0FE6                     	;# 
  2139  0FE7                     	;# 
  2140  0FE8                     	;# 
  2141  0FE9                     	;# 
  2142  0FEA                     	;# 
  2143  0FEB                     	;# 
  2144  0FED                     	;# 
  2145  0FEE                     	;# 
  2146  0FEF                     	;# 
  2147  0000                     	;# 
  2148  0001                     	;# 
  2149  0002                     	;# 
  2150  0003                     	;# 
  2151  0004                     	;# 
  2152  0005                     	;# 
  2153  0006                     	;# 
  2154  0007                     	;# 
  2155  0008                     	;# 
  2156  0009                     	;# 
  2157  000A                     	;# 
  2158  000B                     	;# 
  2159  000C                     	;# 
  2160  000D                     	;# 
  2161  000E                     	;# 
  2162  0010                     	;# 
  2163  0011                     	;# 
  2164  0012                     	;# 
  2165  0013                     	;# 
  2166  0016                     	;# 
  2167  0017                     	;# 
  2168  0018                     	;# 
  2169  001C                     	;# 
  2170  001C                     	;# 
  2171  001D                     	;# 
  2172  001D                     	;# 
  2173  001E                     	;# 
  2174  001F                     	;# 
  2175  008C                     	;# 
  2176  008C                     	;# 
  2177  008D                     	;# 
  2178  008E                     	;# 
  2179  008E                     	;# 
  2180  008F                     	;# 
  2181  0090                     	;# 
  2182  0090                     	;# 
  2183  0091                     	;# 
  2184  0093                     	;# 
  2185  0094                     	;# 
  2186  0095                     	;# 
  2187  0096                     	;# 
  2188  0097                     	;# 
  2189  0098                     	;# 
  2190  0099                     	;# 
  2191  009A                     	;# 
  2192  009B                     	;# 
  2193  009C                     	;# 
  2194  009D                     	;# 
  2195  009E                     	;# 
  2196  010C                     	;# 
  2197  010D                     	;# 
  2198  010E                     	;# 
  2199  010E                     	;# 
  2200  010F                     	;# 
  2201  0110                     	;# 
  2202  0110                     	;# 
  2203  0111                     	;# 
  2204  0112                     	;# 
  2205  0112                     	;# 
  2206  0113                     	;# 
  2207  0114                     	;# 
  2208  0114                     	;# 
  2209  0115                     	;# 
  2210  0116                     	;# 
  2211  0116                     	;# 
  2212  0117                     	;# 
  2213  0119                     	;# 
  2214  0119                     	;# 
  2215  0119                     	;# 
  2216  011A                     	;# 
  2217  011A                     	;# 
  2218  011A                     	;# 
  2219  011B                     	;# 
  2220  011B                     	;# 
  2221  011B                     	;# 
  2222  011B                     	;# 
  2223  011B                     	;# 
  2224  011C                     	;# 
  2225  011C                     	;# 
  2226  011C                     	;# 
  2227  011D                     	;# 
  2228  011D                     	;# 
  2229  011D                     	;# 
  2230  011E                     	;# 
  2231  011E                     	;# 
  2232  011E                     	;# 
  2233  011F                     	;# 
  2234  011F                     	;# 
  2235  011F                     	;# 
  2236  011F                     	;# 
  2237  011F                     	;# 
  2238  018C                     	;# 
  2239  018D                     	;# 
  2240  018E                     	;# 
  2241  018F                     	;# 
  2242  0190                     	;# 
  2243  0191                     	;# 
  2244  0192                     	;# 
  2245  0196                     	;# 
  2246  0197                     	;# 
  2247  0198                     	;# 
  2248  0199                     	;# 
  2249  019A                     	;# 
  2250  019B                     	;# 
  2251  019C                     	;# 
  2252  020C                     	;# 
  2253  020C                     	;# 
  2254  020D                     	;# 
  2255  020E                     	;# 
  2256  020F                     	;# 
  2257  020F                     	;# 
  2258  0210                     	;# 
  2259  0210                     	;# 
  2260  0211                     	;# 
  2261  0211                     	;# 
  2262  0212                     	;# 
  2263  0212                     	;# 
  2264  0213                     	;# 
  2265  0214                     	;# 
  2266  0215                     	;# 
  2267  0215                     	;# 
  2268  0216                     	;# 
  2269  0216                     	;# 
  2270  0217                     	;# 
  2271  0217                     	;# 
  2272  0218                     	;# 
  2273  0218                     	;# 
  2274  0219                     	;# 
  2275  021A                     	;# 
  2276  021B                     	;# 
  2277  021B                     	;# 
  2278  021C                     	;# 
  2279  021C                     	;# 
  2280  021D                     	;# 
  2281  021D                     	;# 
  2282  021E                     	;# 
  2283  021F                     	;# 
  2284  028C                     	;# 
  2285  028C                     	;# 
  2286  028D                     	;# 
  2287  028D                     	;# 
  2288  028E                     	;# 
  2289  028F                     	;# 
  2290  0290                     	;# 
  2291  0290                     	;# 
  2292  0291                     	;# 
  2293  0292                     	;# 
  2294  0292                     	;# 
  2295  0293                     	;# 
  2296  0293                     	;# 
  2297  0294                     	;# 
  2298  0295                     	;# 
  2299  0296                     	;# 
  2300  0296                     	;# 
  2301  0297                     	;# 
  2302  0298                     	;# 
  2303  0298                     	;# 
  2304  0299                     	;# 
  2305  0299                     	;# 
  2306  029A                     	;# 
  2307  029B                     	;# 
  2308  029C                     	;# 
  2309  029C                     	;# 
  2310  029D                     	;# 
  2311  030C                     	;# 
  2312  030C                     	;# 
  2313  030D                     	;# 
  2314  030E                     	;# 
  2315  030F                     	;# 
  2316  0310                     	;# 
  2317  0310                     	;# 
  2318  0311                     	;# 
  2319  0312                     	;# 
  2320  0313                     	;# 
  2321  0314                     	;# 
  2322  0314                     	;# 
  2323  0315                     	;# 
  2324  0316                     	;# 
  2325  0317                     	;# 
  2326  0318                     	;# 
  2327  0318                     	;# 
  2328  0319                     	;# 
  2329  031A                     	;# 
  2330  031B                     	;# 
  2331  031C                     	;# 
  2332  031C                     	;# 
  2333  031D                     	;# 
  2334  031E                     	;# 
  2335  031F                     	;# 
  2336  038C                     	;# 
  2337  038C                     	;# 
  2338  038D                     	;# 
  2339  038E                     	;# 
  2340  0390                     	;# 
  2341  0390                     	;# 
  2342  0391                     	;# 
  2343  0392                     	;# 
  2344  040C                     	;# 
  2345  040D                     	;# 
  2346  040E                     	;# 
  2347  040F                     	;# 
  2348  0410                     	;# 
  2349  0411                     	;# 
  2350  0416                     	;# 
  2351  0416                     	;# 
  2352  0417                     	;# 
  2353  0418                     	;# 
  2354  0418                     	;# 
  2355  0419                     	;# 
  2356  041A                     	;# 
  2357  041A                     	;# 
  2358  041B                     	;# 
  2359  041C                     	;# 
  2360  041C                     	;# 
  2361  041D                     	;# 
  2362  041E                     	;# 
  2363  041F                     	;# 
  2364  048C                     	;# 
  2365  048C                     	;# 
  2366  048D                     	;# 
  2367  048E                     	;# 
  2368  048F                     	;# 
  2369  048F                     	;# 
  2370  0490                     	;# 
  2371  0491                     	;# 
  2372  0492                     	;# 
  2373  0492                     	;# 
  2374  0493                     	;# 
  2375  0494                     	;# 
  2376  0495                     	;# 
  2377  0495                     	;# 
  2378  0496                     	;# 
  2379  0497                     	;# 
  2380  0498                     	;# 
  2381  0499                     	;# 
  2382  049A                     	;# 
  2383  049B                     	;# 
  2384  049C                     	;# 
  2385  049D                     	;# 
  2386  050C                     	;# 
  2387  050C                     	;# 
  2388  050D                     	;# 
  2389  050E                     	;# 
  2390  050F                     	;# 
  2391  050F                     	;# 
  2392  0510                     	;# 
  2393  0511                     	;# 
  2394  0512                     	;# 
  2395  0512                     	;# 
  2396  0513                     	;# 
  2397  0514                     	;# 
  2398  0515                     	;# 
  2399  0515                     	;# 
  2400  0516                     	;# 
  2401  0517                     	;# 
  2402  0518                     	;# 
  2403  0519                     	;# 
  2404  051A                     	;# 
  2405  051B                     	;# 
  2406  051C                     	;# 
  2407  051D                     	;# 
  2408  058C                     	;# 
  2409  058C                     	;# 
  2410  058D                     	;# 
  2411  058E                     	;# 
  2412  058F                     	;# 
  2413  058F                     	;# 
  2414  0590                     	;# 
  2415  0591                     	;# 
  2416  0592                     	;# 
  2417  0593                     	;# 
  2418  060C                     	;# 
  2419  060D                     	;# 
  2420  060E                     	;# 
  2421  060F                     	;# 
  2422  0610                     	;# 
  2423  0611                     	;# 
  2424  0612                     	;# 
  2425  0613                     	;# 
  2426  0614                     	;# 
  2427  0616                     	;# 
  2428  0617                     	;# 
  2429  0618                     	;# 
  2430  0619                     	;# 
  2431  061A                     	;# 
  2432  061B                     	;# 
  2433  061C                     	;# 
  2434  061D                     	;# 
  2435  061E                     	;# 
  2436  068C                     	;# 
  2437  068D                     	;# 
  2438  068E                     	;# 
  2439  068F                     	;# 
  2440  0690                     	;# 
  2441  0691                     	;# 
  2442  0692                     	;# 
  2443  0693                     	;# 
  2444  0694                     	;# 
  2445  070C                     	;# 
  2446  070D                     	;# 
  2447  070E                     	;# 
  2448  070F                     	;# 
  2449  0710                     	;# 
  2450  0711                     	;# 
  2451  0712                     	;# 
  2452  0713                     	;# 
  2453  0714                     	;# 
  2454  0716                     	;# 
  2455  0717                     	;# 
  2456  0718                     	;# 
  2457  0719                     	;# 
  2458  071A                     	;# 
  2459  071B                     	;# 
  2460  071C                     	;# 
  2461  071D                     	;# 
  2462  071E                     	;# 
  2463  0796                     	;# 
  2464  0797                     	;# 
  2465  0798                     	;# 
  2466  0799                     	;# 
  2467  079A                     	;# 
  2468  079B                     	;# 
  2469  080C                     	;# 
  2470  080D                     	;# 
  2471  080E                     	;# 
  2472  080F                     	;# 
  2473  0810                     	;# 
  2474  0811                     	;# 
  2475  0812                     	;# 
  2476  0813                     	;# 
  2477  0814                     	;# 
  2478  081A                     	;# 
  2479  081B                     	;# 
  2480  081C                     	;# 
  2481  081D                     	;# 
  2482  081E                     	;# 
  2483  081F                     	;# 
  2484  088C                     	;# 
  2485  088D                     	;# 
  2486  088E                     	;# 
  2487  088F                     	;# 
  2488  0890                     	;# 
  2489  0891                     	;# 
  2490  0892                     	;# 
  2491  0893                     	;# 
  2492  0895                     	;# 
  2493  0896                     	;# 
  2494  0897                     	;# 
  2495  0898                     	;# 
  2496  0899                     	;# 
  2497  089A                     	;# 
  2498  089B                     	;# 
  2499  090C                     	;# 
  2500  090E                     	;# 
  2501  090F                     	;# 
  2502  091F                     	;# 
  2503  098F                     	;# 
  2504  098F                     	;# 
  2505  0990                     	;# 
  2506  0991                     	;# 
  2507  0992                     	;# 
  2508  0993                     	;# 
  2509  0994                     	;# 
  2510  0995                     	;# 
  2511  0996                     	;# 
  2512  0997                     	;# 
  2513  0E0F                     	;# 
  2514  0E10                     	;# 
  2515  0E11                     	;# 
  2516  0E12                     	;# 
  2517  0E13                     	;# 
  2518  0E14                     	;# 
  2519  0E15                     	;# 
  2520  0E16                     	;# 
  2521  0E17                     	;# 
  2522  0E18                     	;# 
  2523  0E19                     	;# 
  2524  0E1A                     	;# 
  2525  0E1B                     	;# 
  2526  0E1C                     	;# 
  2527  0E1D                     	;# 
  2528  0E1E                     	;# 
  2529  0E1F                     	;# 
  2530  0E20                     	;# 
  2531  0E21                     	;# 
  2532  0E22                     	;# 
  2533  0E23                     	;# 
  2534  0E24                     	;# 
  2535  0E25                     	;# 
  2536  0E26                     	;# 
  2537  0E27                     	;# 
  2538  0E28                     	;# 
  2539  0E29                     	;# 
  2540  0E2A                     	;# 
  2541  0E2B                     	;# 
  2542  0E2C                     	;# 
  2543  0E2D                     	;# 
  2544  0E2E                     	;# 
  2545  0E2F                     	;# 
  2546  0E30                     	;# 
  2547  0E31                     	;# 
  2548  0E32                     	;# 
  2549  0E33                     	;# 
  2550  0E34                     	;# 
  2551  0E35                     	;# 
  2552  0E36                     	;# 
  2553  0E37                     	;# 
  2554  0E8F                     	;# 
  2555  0E90                     	;# 
  2556  0E91                     	;# 
  2557  0E92                     	;# 
  2558  0E93                     	;# 
  2559  0E94                     	;# 
  2560  0E95                     	;# 
  2561  0E96                     	;# 
  2562  0E97                     	;# 
  2563  0E9C                     	;# 
  2564  0E9D                     	;# 
  2565  0E9E                     	;# 
  2566  0EA1                     	;# 
  2567  0EA2                     	;# 
  2568  0EA3                     	;# 
  2569  0EA4                     	;# 
  2570  0EA5                     	;# 
  2571  0EA9                     	;# 
  2572  0EAA                     	;# 
  2573  0EAB                     	;# 
  2574  0EAC                     	;# 
  2575  0EB1                     	;# 
  2576  0EB2                     	;# 
  2577  0EB3                     	;# 
  2578  0EB8                     	;# 
  2579  0EB9                     	;# 
  2580  0EBA                     	;# 
  2581  0EBB                     	;# 
  2582  0EBC                     	;# 
  2583  0EBD                     	;# 
  2584  0EBE                     	;# 
  2585  0EC3                     	;# 
  2586  0EC5                     	;# 
  2587  0EC6                     	;# 
  2588  0EC7                     	;# 
  2589  0EC8                     	;# 
  2590  0EC9                     	;# 
  2591  0ECA                     	;# 
  2592  0ECB                     	;# 
  2593  0ECC                     	;# 
  2594  0F10                     	;# 
  2595  0F11                     	;# 
  2596  0F12                     	;# 
  2597  0F13                     	;# 
  2598  0F14                     	;# 
  2599  0F15                     	;# 
  2600  0F16                     	;# 
  2601  0F17                     	;# 
  2602  0F18                     	;# 
  2603  0F19                     	;# 
  2604  0F1A                     	;# 
  2605  0F1B                     	;# 
  2606  0F1C                     	;# 
  2607  0F1D                     	;# 
  2608  0F1E                     	;# 
  2609  0F1F                     	;# 
  2610  0F20                     	;# 
  2611  0F21                     	;# 
  2612  0F22                     	;# 
  2613  0F23                     	;# 
  2614  0F24                     	;# 
  2615  0F25                     	;# 
  2616  0F26                     	;# 
  2617  0F27                     	;# 
  2618  0F38                     	;# 
  2619  0F39                     	;# 
  2620  0F3A                     	;# 
  2621  0F3B                     	;# 
  2622  0F3C                     	;# 
  2623  0F3D                     	;# 
  2624  0F3E                     	;# 
  2625  0F3F                     	;# 
  2626  0F40                     	;# 
  2627  0F41                     	;# 
  2628  0F43                     	;# 
  2629  0F44                     	;# 
  2630  0F45                     	;# 
  2631  0F46                     	;# 
  2632  0F47                     	;# 
  2633  0F48                     	;# 
  2634  0F49                     	;# 
  2635  0F4A                     	;# 
  2636  0F4B                     	;# 
  2637  0F4C                     	;# 
  2638  0F4E                     	;# 
  2639  0F4F                     	;# 
  2640  0F50                     	;# 
  2641  0F51                     	;# 
  2642  0F52                     	;# 
  2643  0F53                     	;# 
  2644  0F54                     	;# 
  2645  0F55                     	;# 
  2646  0F56                     	;# 
  2647  0F57                     	;# 
  2648  0F65                     	;# 
  2649  0F68                     	;# 
  2650  0F69                     	;# 
  2651  0F6A                     	;# 
  2652  0F6B                     	;# 
  2653  0FE4                     	;# 
  2654  0FE5                     	;# 
  2655  0FE6                     	;# 
  2656  0FE7                     	;# 
  2657  0FE8                     	;# 
  2658  0FE9                     	;# 
  2659  0FEA                     	;# 
  2660  0FEB                     	;# 
  2661  0FED                     	;# 
  2662  0FEE                     	;# 
  2663  0FEF                     	;# 
  2664  0000                     	;# 
  2665  0001                     	;# 
  2666  0002                     	;# 
  2667  0003                     	;# 
  2668  0004                     	;# 
  2669  0005                     	;# 
  2670  0006                     	;# 
  2671  0007                     	;# 
  2672  0008                     	;# 
  2673  0009                     	;# 
  2674  000A                     	;# 
  2675  000B                     	;# 
  2676  000C                     	;# 
  2677  000D                     	;# 
  2678  000E                     	;# 
  2679  0010                     	;# 
  2680  0011                     	;# 
  2681  0012                     	;# 
  2682  0013                     	;# 
  2683  0016                     	;# 
  2684  0017                     	;# 
  2685  0018                     	;# 
  2686  001C                     	;# 
  2687  001C                     	;# 
  2688  001D                     	;# 
  2689  001D                     	;# 
  2690  001E                     	;# 
  2691  001F                     	;# 
  2692  008C                     	;# 
  2693  008C                     	;# 
  2694  008D                     	;# 
  2695  008E                     	;# 
  2696  008E                     	;# 
  2697  008F                     	;# 
  2698  0090                     	;# 
  2699  0090                     	;# 
  2700  0091                     	;# 
  2701  0093                     	;# 
  2702  0094                     	;# 
  2703  0095                     	;# 
  2704  0096                     	;# 
  2705  0097                     	;# 
  2706  0098                     	;# 
  2707  0099                     	;# 
  2708  009A                     	;# 
  2709  009B                     	;# 
  2710  009C                     	;# 
  2711  009D                     	;# 
  2712  009E                     	;# 
  2713  010C                     	;# 
  2714  010D                     	;# 
  2715  010E                     	;# 
  2716  010E                     	;# 
  2717  010F                     	;# 
  2718  0110                     	;# 
  2719  0110                     	;# 
  2720  0111                     	;# 
  2721  0112                     	;# 
  2722  0112                     	;# 
  2723  0113                     	;# 
  2724  0114                     	;# 
  2725  0114                     	;# 
  2726  0115                     	;# 
  2727  0116                     	;# 
  2728  0116                     	;# 
  2729  0117                     	;# 
  2730  0119                     	;# 
  2731  0119                     	;# 
  2732  0119                     	;# 
  2733  011A                     	;# 
  2734  011A                     	;# 
  2735  011A                     	;# 
  2736  011B                     	;# 
  2737  011B                     	;# 
  2738  011B                     	;# 
  2739  011B                     	;# 
  2740  011B                     	;# 
  2741  011C                     	;# 
  2742  011C                     	;# 
  2743  011C                     	;# 
  2744  011D                     	;# 
  2745  011D                     	;# 
  2746  011D                     	;# 
  2747  011E                     	;# 
  2748  011E                     	;# 
  2749  011E                     	;# 
  2750  011F                     	;# 
  2751  011F                     	;# 
  2752  011F                     	;# 
  2753  011F                     	;# 
  2754  011F                     	;# 
  2755  018C                     	;# 
  2756  018D                     	;# 
  2757  018E                     	;# 
  2758  018F                     	;# 
  2759  0190                     	;# 
  2760  0191                     	;# 
  2761  0192                     	;# 
  2762  0196                     	;# 
  2763  0197                     	;# 
  2764  0198                     	;# 
  2765  0199                     	;# 
  2766  019A                     	;# 
  2767  019B                     	;# 
  2768  019C                     	;# 
  2769  020C                     	;# 
  2770  020C                     	;# 
  2771  020D                     	;# 
  2772  020E                     	;# 
  2773  020F                     	;# 
  2774  020F                     	;# 
  2775  0210                     	;# 
  2776  0210                     	;# 
  2777  0211                     	;# 
  2778  0211                     	;# 
  2779  0212                     	;# 
  2780  0212                     	;# 
  2781  0213                     	;# 
  2782  0214                     	;# 
  2783  0215                     	;# 
  2784  0215                     	;# 
  2785  0216                     	;# 
  2786  0216                     	;# 
  2787  0217                     	;# 
  2788  0217                     	;# 
  2789  0218                     	;# 
  2790  0218                     	;# 
  2791  0219                     	;# 
  2792  021A                     	;# 
  2793  021B                     	;# 
  2794  021B                     	;# 
  2795  021C                     	;# 
  2796  021C                     	;# 
  2797  021D                     	;# 
  2798  021D                     	;# 
  2799  021E                     	;# 
  2800  021F                     	;# 
  2801  028C                     	;# 
  2802  028C                     	;# 
  2803  028D                     	;# 
  2804  028D                     	;# 
  2805  028E                     	;# 
  2806  028F                     	;# 
  2807  0290                     	;# 
  2808  0290                     	;# 
  2809  0291                     	;# 
  2810  0292                     	;# 
  2811  0292                     	;# 
  2812  0293                     	;# 
  2813  0293                     	;# 
  2814  0294                     	;# 
  2815  0295                     	;# 
  2816  0296                     	;# 
  2817  0296                     	;# 
  2818  0297                     	;# 
  2819  0298                     	;# 
  2820  0298                     	;# 
  2821  0299                     	;# 
  2822  0299                     	;# 
  2823  029A                     	;# 
  2824  029B                     	;# 
  2825  029C                     	;# 
  2826  029C                     	;# 
  2827  029D                     	;# 
  2828  030C                     	;# 
  2829  030C                     	;# 
  2830  030D                     	;# 
  2831  030E                     	;# 
  2832  030F                     	;# 
  2833  0310                     	;# 
  2834  0310                     	;# 
  2835  0311                     	;# 
  2836  0312                     	;# 
  2837  0313                     	;# 
  2838  0314                     	;# 
  2839  0314                     	;# 
  2840  0315                     	;# 
  2841  0316                     	;# 
  2842  0317                     	;# 
  2843  0318                     	;# 
  2844  0318                     	;# 
  2845  0319                     	;# 
  2846  031A                     	;# 
  2847  031B                     	;# 
  2848  031C                     	;# 
  2849  031C                     	;# 
  2850  031D                     	;# 
  2851  031E                     	;# 
  2852  031F                     	;# 
  2853  038C                     	;# 
  2854  038C                     	;# 
  2855  038D                     	;# 
  2856  038E                     	;# 
  2857  0390                     	;# 
  2858  0390                     	;# 
  2859  0391                     	;# 
  2860  0392                     	;# 
  2861  040C                     	;# 
  2862  040D                     	;# 
  2863  040E                     	;# 
  2864  040F                     	;# 
  2865  0410                     	;# 
  2866  0411                     	;# 
  2867  0416                     	;# 
  2868  0416                     	;# 
  2869  0417                     	;# 
  2870  0418                     	;# 
  2871  0418                     	;# 
  2872  0419                     	;# 
  2873  041A                     	;# 
  2874  041A                     	;# 
  2875  041B                     	;# 
  2876  041C                     	;# 
  2877  041C                     	;# 
  2878  041D                     	;# 
  2879  041E                     	;# 
  2880  041F                     	;# 
  2881  048C                     	;# 
  2882  048C                     	;# 
  2883  048D                     	;# 
  2884  048E                     	;# 
  2885  048F                     	;# 
  2886  048F                     	;# 
  2887  0490                     	;# 
  2888  0491                     	;# 
  2889  0492                     	;# 
  2890  0492                     	;# 
  2891  0493                     	;# 
  2892  0494                     	;# 
  2893  0495                     	;# 
  2894  0495                     	;# 
  2895  0496                     	;# 
  2896  0497                     	;# 
  2897  0498                     	;# 
  2898  0499                     	;# 
  2899  049A                     	;# 
  2900  049B                     	;# 
  2901  049C                     	;# 
  2902  049D                     	;# 
  2903  050C                     	;# 
  2904  050C                     	;# 
  2905  050D                     	;# 
  2906  050E                     	;# 
  2907  050F                     	;# 
  2908  050F                     	;# 
  2909  0510                     	;# 
  2910  0511                     	;# 
  2911  0512                     	;# 
  2912  0512                     	;# 
  2913  0513                     	;# 
  2914  0514                     	;# 
  2915  0515                     	;# 
  2916  0515                     	;# 
  2917  0516                     	;# 
  2918  0517                     	;# 
  2919  0518                     	;# 
  2920  0519                     	;# 
  2921  051A                     	;# 
  2922  051B                     	;# 
  2923  051C                     	;# 
  2924  051D                     	;# 
  2925  058C                     	;# 
  2926  058C                     	;# 
  2927  058D                     	;# 
  2928  058E                     	;# 
  2929  058F                     	;# 
  2930  058F                     	;# 
  2931  0590                     	;# 
  2932  0591                     	;# 
  2933  0592                     	;# 
  2934  0593                     	;# 
  2935  060C                     	;# 
  2936  060D                     	;# 
  2937  060E                     	;# 
  2938  060F                     	;# 
  2939  0610                     	;# 
  2940  0611                     	;# 
  2941  0612                     	;# 
  2942  0613                     	;# 
  2943  0614                     	;# 
  2944  0616                     	;# 
  2945  0617                     	;# 
  2946  0618                     	;# 
  2947  0619                     	;# 
  2948  061A                     	;# 
  2949  061B                     	;# 
  2950  061C                     	;# 
  2951  061D                     	;# 
  2952  061E                     	;# 
  2953  068C                     	;# 
  2954  068D                     	;# 
  2955  068E                     	;# 
  2956  068F                     	;# 
  2957  0690                     	;# 
  2958  0691                     	;# 
  2959  0692                     	;# 
  2960  0693                     	;# 
  2961  0694                     	;# 
  2962  070C                     	;# 
  2963  070D                     	;# 
  2964  070E                     	;# 
  2965  070F                     	;# 
  2966  0710                     	;# 
  2967  0711                     	;# 
  2968  0712                     	;# 
  2969  0713                     	;# 
  2970  0714                     	;# 
  2971  0716                     	;# 
  2972  0717                     	;# 
  2973  0718                     	;# 
  2974  0719                     	;# 
  2975  071A                     	;# 
  2976  071B                     	;# 
  2977  071C                     	;# 
  2978  071D                     	;# 
  2979  071E                     	;# 
  2980  0796                     	;# 
  2981  0797                     	;# 
  2982  0798                     	;# 
  2983  0799                     	;# 
  2984  079A                     	;# 
  2985  079B                     	;# 
  2986  080C                     	;# 
  2987  080D                     	;# 
  2988  080E                     	;# 
  2989  080F                     	;# 
  2990  0810                     	;# 
  2991  0811                     	;# 
  2992  0812                     	;# 
  2993  0813                     	;# 
  2994  0814                     	;# 
  2995  081A                     	;# 
  2996  081B                     	;# 
  2997  081C                     	;# 
  2998  081D                     	;# 
  2999  081E                     	;# 
  3000  081F                     	;# 
  3001  088C                     	;# 
  3002  088D                     	;# 
  3003  088E                     	;# 
  3004  088F                     	;# 
  3005  0890                     	;# 
  3006  0891                     	;# 
  3007  0892                     	;# 
  3008  0893                     	;# 
  3009  0895                     	;# 
  3010  0896                     	;# 
  3011  0897                     	;# 
  3012  0898                     	;# 
  3013  0899                     	;# 
  3014  089A                     	;# 
  3015  089B                     	;# 
  3016  090C                     	;# 
  3017  090E                     	;# 
  3018  090F                     	;# 
  3019  091F                     	;# 
  3020  098F                     	;# 
  3021  098F                     	;# 
  3022  0990                     	;# 
  3023  0991                     	;# 
  3024  0992                     	;# 
  3025  0993                     	;# 
  3026  0994                     	;# 
  3027  0995                     	;# 
  3028  0996                     	;# 
  3029  0997                     	;# 
  3030  0E0F                     	;# 
  3031  0E10                     	;# 
  3032  0E11                     	;# 
  3033  0E12                     	;# 
  3034  0E13                     	;# 
  3035  0E14                     	;# 
  3036  0E15                     	;# 
  3037  0E16                     	;# 
  3038  0E17                     	;# 
  3039  0E18                     	;# 
  3040  0E19                     	;# 
  3041  0E1A                     	;# 
  3042  0E1B                     	;# 
  3043  0E1C                     	;# 
  3044  0E1D                     	;# 
  3045  0E1E                     	;# 
  3046  0E1F                     	;# 
  3047  0E20                     	;# 
  3048  0E21                     	;# 
  3049  0E22                     	;# 
  3050  0E23                     	;# 
  3051  0E24                     	;# 
  3052  0E25                     	;# 
  3053  0E26                     	;# 
  3054  0E27                     	;# 
  3055  0E28                     	;# 
  3056  0E29                     	;# 
  3057  0E2A                     	;# 
  3058  0E2B                     	;# 
  3059  0E2C                     	;# 
  3060  0E2D                     	;# 
  3061  0E2E                     	;# 
  3062  0E2F                     	;# 
  3063  0E30                     	;# 
  3064  0E31                     	;# 
  3065  0E32                     	;# 
  3066  0E33                     	;# 
  3067  0E34                     	;# 
  3068  0E35                     	;# 
  3069  0E36                     	;# 
  3070  0E37                     	;# 
  3071  0E8F                     	;# 
  3072  0E90                     	;# 
  3073  0E91                     	;# 
  3074  0E92                     	;# 
  3075  0E93                     	;# 
  3076  0E94                     	;# 
  3077  0E95                     	;# 
  3078  0E96                     	;# 
  3079  0E97                     	;# 
  3080  0E9C                     	;# 
  3081  0E9D                     	;# 
  3082  0E9E                     	;# 
  3083  0EA1                     	;# 
  3084  0EA2                     	;# 
  3085  0EA3                     	;# 
  3086  0EA4                     	;# 
  3087  0EA5                     	;# 
  3088  0EA9                     	;# 
  3089  0EAA                     	;# 
  3090  0EAB                     	;# 
  3091  0EAC                     	;# 
  3092  0EB1                     	;# 
  3093  0EB2                     	;# 
  3094  0EB3                     	;# 
  3095  0EB8                     	;# 
  3096  0EB9                     	;# 
  3097  0EBA                     	;# 
  3098  0EBB                     	;# 
  3099  0EBC                     	;# 
  3100  0EBD                     	;# 
  3101  0EBE                     	;# 
  3102  0EC3                     	;# 
  3103  0EC5                     	;# 
  3104  0EC6                     	;# 
  3105  0EC7                     	;# 
  3106  0EC8                     	;# 
  3107  0EC9                     	;# 
  3108  0ECA                     	;# 
  3109  0ECB                     	;# 
  3110  0ECC                     	;# 
  3111  0F10                     	;# 
  3112  0F11                     	;# 
  3113  0F12                     	;# 
  3114  0F13                     	;# 
  3115  0F14                     	;# 
  3116  0F15                     	;# 
  3117  0F16                     	;# 
  3118  0F17                     	;# 
  3119  0F18                     	;# 
  3120  0F19                     	;# 
  3121  0F1A                     	;# 
  3122  0F1B                     	;# 
  3123  0F1C                     	;# 
  3124  0F1D                     	;# 
  3125  0F1E                     	;# 
  3126  0F1F                     	;# 
  3127  0F20                     	;# 
  3128  0F21                     	;# 
  3129  0F22                     	;# 
  3130  0F23                     	;# 
  3131  0F24                     	;# 
  3132  0F25                     	;# 
  3133  0F26                     	;# 
  3134  0F27                     	;# 
  3135  0F38                     	;# 
  3136  0F39                     	;# 
  3137  0F3A                     	;# 
  3138  0F3B                     	;# 
  3139  0F3C                     	;# 
  3140  0F3D                     	;# 
  3141  0F3E                     	;# 
  3142  0F3F                     	;# 
  3143  0F40                     	;# 
  3144  0F41                     	;# 
  3145  0F43                     	;# 
  3146  0F44                     	;# 
  3147  0F45                     	;# 
  3148  0F46                     	;# 
  3149  0F47                     	;# 
  3150  0F48                     	;# 
  3151  0F49                     	;# 
  3152  0F4A                     	;# 
  3153  0F4B                     	;# 
  3154  0F4C                     	;# 
  3155  0F4E                     	;# 
  3156  0F4F                     	;# 
  3157  0F50                     	;# 
  3158  0F51                     	;# 
  3159  0F52                     	;# 
  3160  0F53                     	;# 
  3161  0F54                     	;# 
  3162  0F55                     	;# 
  3163  0F56                     	;# 
  3164  0F57                     	;# 
  3165  0F65                     	;# 
  3166  0F68                     	;# 
  3167  0F69                     	;# 
  3168  0F6A                     	;# 
  3169  0F6B                     	;# 
  3170  0FE4                     	;# 
  3171  0FE5                     	;# 
  3172  0FE6                     	;# 
  3173  0FE7                     	;# 
  3174  0FE8                     	;# 
  3175  0FE9                     	;# 
  3176  0FEA                     	;# 
  3177  0FEB                     	;# 
  3178  0FED                     	;# 
  3179  0FEE                     	;# 
  3180  0FEF                     	;# 
  3181  0000                     	;# 
  3182  0001                     	;# 
  3183  0002                     	;# 
  3184  0003                     	;# 
  3185  0004                     	;# 
  3186  0005                     	;# 
  3187  0006                     	;# 
  3188  0007                     	;# 
  3189  0008                     	;# 
  3190  0009                     	;# 
  3191  000A                     	;# 
  3192  000B                     	;# 
  3193  000C                     	;# 
  3194  000D                     	;# 
  3195  000E                     	;# 
  3196  0010                     	;# 
  3197  0011                     	;# 
  3198  0012                     	;# 
  3199  0013                     	;# 
  3200  0016                     	;# 
  3201  0017                     	;# 
  3202  0018                     	;# 
  3203  001C                     	;# 
  3204  001C                     	;# 
  3205  001D                     	;# 
  3206  001D                     	;# 
  3207  001E                     	;# 
  3208  001F                     	;# 
  3209  008C                     	;# 
  3210  008C                     	;# 
  3211  008D                     	;# 
  3212  008E                     	;# 
  3213  008E                     	;# 
  3214  008F                     	;# 
  3215  0090                     	;# 
  3216  0090                     	;# 
  3217  0091                     	;# 
  3218  0093                     	;# 
  3219  0094                     	;# 
  3220  0095                     	;# 
  3221  0096                     	;# 
  3222  0097                     	;# 
  3223  0098                     	;# 
  3224  0099                     	;# 
  3225  009A                     	;# 
  3226  009B                     	;# 
  3227  009C                     	;# 
  3228  009D                     	;# 
  3229  009E                     	;# 
  3230  010C                     	;# 
  3231  010D                     	;# 
  3232  010E                     	;# 
  3233  010E                     	;# 
  3234  010F                     	;# 
  3235  0110                     	;# 
  3236  0110                     	;# 
  3237  0111                     	;# 
  3238  0112                     	;# 
  3239  0112                     	;# 
  3240  0113                     	;# 
  3241  0114                     	;# 
  3242  0114                     	;# 
  3243  0115                     	;# 
  3244  0116                     	;# 
  3245  0116                     	;# 
  3246  0117                     	;# 
  3247  0119                     	;# 
  3248  0119                     	;# 
  3249  0119                     	;# 
  3250  011A                     	;# 
  3251  011A                     	;# 
  3252  011A                     	;# 
  3253  011B                     	;# 
  3254  011B                     	;# 
  3255  011B                     	;# 
  3256  011B                     	;# 
  3257  011B                     	;# 
  3258  011C                     	;# 
  3259  011C                     	;# 
  3260  011C                     	;# 
  3261  011D                     	;# 
  3262  011D                     	;# 
  3263  011D                     	;# 
  3264  011E                     	;# 
  3265  011E                     	;# 
  3266  011E                     	;# 
  3267  011F                     	;# 
  3268  011F                     	;# 
  3269  011F                     	;# 
  3270  011F                     	;# 
  3271  011F                     	;# 
  3272  018C                     	;# 
  3273  018D                     	;# 
  3274  018E                     	;# 
  3275  018F                     	;# 
  3276  0190                     	;# 
  3277  0191                     	;# 
  3278  0192                     	;# 
  3279  0196                     	;# 
  3280  0197                     	;# 
  3281  0198                     	;# 
  3282  0199                     	;# 
  3283  019A                     	;# 
  3284  019B                     	;# 
  3285  019C                     	;# 
  3286  020C                     	;# 
  3287  020C                     	;# 
  3288  020D                     	;# 
  3289  020E                     	;# 
  3290  020F                     	;# 
  3291  020F                     	;# 
  3292  0210                     	;# 
  3293  0210                     	;# 
  3294  0211                     	;# 
  3295  0211                     	;# 
  3296  0212                     	;# 
  3297  0212                     	;# 
  3298  0213                     	;# 
  3299  0214                     	;# 
  3300  0215                     	;# 
  3301  0215                     	;# 
  3302  0216                     	;# 
  3303  0216                     	;# 
  3304  0217                     	;# 
  3305  0217                     	;# 
  3306  0218                     	;# 
  3307  0218                     	;# 
  3308  0219                     	;# 
  3309  021A                     	;# 
  3310  021B                     	;# 
  3311  021B                     	;# 
  3312  021C                     	;# 
  3313  021C                     	;# 
  3314  021D                     	;# 
  3315  021D                     	;# 
  3316  021E                     	;# 
  3317  021F                     	;# 
  3318  028C                     	;# 
  3319  028C                     	;# 
  3320  028D                     	;# 
  3321  028D                     	;# 
  3322  028E                     	;# 
  3323  028F                     	;# 
  3324  0290                     	;# 
  3325  0290                     	;# 
  3326  0291                     	;# 
  3327  0292                     	;# 
  3328  0292                     	;# 
  3329  0293                     	;# 
  3330  0293                     	;# 
  3331  0294                     	;# 
  3332  0295                     	;# 
  3333  0296                     	;# 
  3334  0296                     	;# 
  3335  0297                     	;# 
  3336  0298                     	;# 
  3337  0298                     	;# 
  3338  0299                     	;# 
  3339  0299                     	;# 
  3340  029A                     	;# 
  3341  029B                     	;# 
  3342  029C                     	;# 
  3343  029C                     	;# 
  3344  029D                     	;# 
  3345  030C                     	;# 
  3346  030C                     	;# 
  3347  030D                     	;# 
  3348  030E                     	;# 
  3349  030F                     	;# 
  3350  0310                     	;# 
  3351  0310                     	;# 
  3352  0311                     	;# 
  3353  0312                     	;# 
  3354  0313                     	;# 
  3355  0314                     	;# 
  3356  0314                     	;# 
  3357  0315                     	;# 
  3358  0316                     	;# 
  3359  0317                     	;# 
  3360  0318                     	;# 
  3361  0318                     	;# 
  3362  0319                     	;# 
  3363  031A                     	;# 
  3364  031B                     	;# 
  3365  031C                     	;# 
  3366  031C                     	;# 
  3367  031D                     	;# 
  3368  031E                     	;# 
  3369  031F                     	;# 
  3370  038C                     	;# 
  3371  038C                     	;# 
  3372  038D                     	;# 
  3373  038E                     	;# 
  3374  0390                     	;# 
  3375  0390                     	;# 
  3376  0391                     	;# 
  3377  0392                     	;# 
  3378  040C                     	;# 
  3379  040D                     	;# 
  3380  040E                     	;# 
  3381  040F                     	;# 
  3382  0410                     	;# 
  3383  0411                     	;# 
  3384  0416                     	;# 
  3385  0416                     	;# 
  3386  0417                     	;# 
  3387  0418                     	;# 
  3388  0418                     	;# 
  3389  0419                     	;# 
  3390  041A                     	;# 
  3391  041A                     	;# 
  3392  041B                     	;# 
  3393  041C                     	;# 
  3394  041C                     	;# 
  3395  041D                     	;# 
  3396  041E                     	;# 
  3397  041F                     	;# 
  3398  048C                     	;# 
  3399  048C                     	;# 
  3400  048D                     	;# 
  3401  048E                     	;# 
  3402  048F                     	;# 
  3403  048F                     	;# 
  3404  0490                     	;# 
  3405  0491                     	;# 
  3406  0492                     	;# 
  3407  0492                     	;# 
  3408  0493                     	;# 
  3409  0494                     	;# 
  3410  0495                     	;# 
  3411  0495                     	;# 
  3412  0496                     	;# 
  3413  0497                     	;# 
  3414  0498                     	;# 
  3415  0499                     	;# 
  3416  049A                     	;# 
  3417  049B                     	;# 
  3418  049C                     	;# 
  3419  049D                     	;# 
  3420  050C                     	;# 
  3421  050C                     	;# 
  3422  050D                     	;# 
  3423  050E                     	;# 
  3424  050F                     	;# 
  3425  050F                     	;# 
  3426  0510                     	;# 
  3427  0511                     	;# 
  3428  0512                     	;# 
  3429  0512                     	;# 
  3430  0513                     	;# 
  3431  0514                     	;# 
  3432  0515                     	;# 
  3433  0515                     	;# 
  3434  0516                     	;# 
  3435  0517                     	;# 
  3436  0518                     	;# 
  3437  0519                     	;# 
  3438  051A                     	;# 
  3439  051B                     	;# 
  3440  051C                     	;# 
  3441  051D                     	;# 
  3442  058C                     	;# 
  3443  058C                     	;# 
  3444  058D                     	;# 
  3445  058E                     	;# 
  3446  058F                     	;# 
  3447  058F                     	;# 
  3448  0590                     	;# 
  3449  0591                     	;# 
  3450  0592                     	;# 
  3451  0593                     	;# 
  3452  060C                     	;# 
  3453  060D                     	;# 
  3454  060E                     	;# 
  3455  060F                     	;# 
  3456  0610                     	;# 
  3457  0611                     	;# 
  3458  0612                     	;# 
  3459  0613                     	;# 
  3460  0614                     	;# 
  3461  0616                     	;# 
  3462  0617                     	;# 
  3463  0618                     	;# 
  3464  0619                     	;# 
  3465  061A                     	;# 
  3466  061B                     	;# 
  3467  061C                     	;# 
  3468  061D                     	;# 
  3469  061E                     	;# 
  3470  068C                     	;# 
  3471  068D                     	;# 
  3472  068E                     	;# 
  3473  068F                     	;# 
  3474  0690                     	;# 
  3475  0691                     	;# 
  3476  0692                     	;# 
  3477  0693                     	;# 
  3478  0694                     	;# 
  3479  070C                     	;# 
  3480  070D                     	;# 
  3481  070E                     	;# 
  3482  070F                     	;# 
  3483  0710                     	;# 
  3484  0711                     	;# 
  3485  0712                     	;# 
  3486  0713                     	;# 
  3487  0714                     	;# 
  3488  0716                     	;# 
  3489  0717                     	;# 
  3490  0718                     	;# 
  3491  0719                     	;# 
  3492  071A                     	;# 
  3493  071B                     	;# 
  3494  071C                     	;# 
  3495  071D                     	;# 
  3496  071E                     	;# 
  3497  0796                     	;# 
  3498  0797                     	;# 
  3499  0798                     	;# 
  3500  0799                     	;# 
  3501  079A                     	;# 
  3502  079B                     	;# 
  3503  080C                     	;# 
  3504  080D                     	;# 
  3505  080E                     	;# 
  3506  080F                     	;# 
  3507  0810                     	;# 
  3508  0811                     	;# 
  3509  0812                     	;# 
  3510  0813                     	;# 
  3511  0814                     	;# 
  3512  081A                     	;# 
  3513  081B                     	;# 
  3514  081C                     	;# 
  3515  081D                     	;# 
  3516  081E                     	;# 
  3517  081F                     	;# 
  3518  088C                     	;# 
  3519  088D                     	;# 
  3520  088E                     	;# 
  3521  088F                     	;# 
  3522  0890                     	;# 
  3523  0891                     	;# 
  3524  0892                     	;# 
  3525  0893                     	;# 
  3526  0895                     	;# 
  3527  0896                     	;# 
  3528  0897                     	;# 
  3529  0898                     	;# 
  3530  0899                     	;# 
  3531  089A                     	;# 
  3532  089B                     	;# 
  3533  090C                     	;# 
  3534  090E                     	;# 
  3535  090F                     	;# 
  3536  091F                     	;# 
  3537  098F                     	;# 
  3538  098F                     	;# 
  3539  0990                     	;# 
  3540  0991                     	;# 
  3541  0992                     	;# 
  3542  0993                     	;# 
  3543  0994                     	;# 
  3544  0995                     	;# 
  3545  0996                     	;# 
  3546  0997                     	;# 
  3547  0E0F                     	;# 
  3548  0E10                     	;# 
  3549  0E11                     	;# 
  3550  0E12                     	;# 
  3551  0E13                     	;# 
  3552  0E14                     	;# 
  3553  0E15                     	;# 
  3554  0E16                     	;# 
  3555  0E17                     	;# 
  3556  0E18                     	;# 
  3557  0E19                     	;# 
  3558  0E1A                     	;# 
  3559  0E1B                     	;# 
  3560  0E1C                     	;# 
  3561  0E1D                     	;# 
  3562  0E1E                     	;# 
  3563  0E1F                     	;# 
  3564  0E20                     	;# 
  3565  0E21                     	;# 
  3566  0E22                     	;# 
  3567  0E23                     	;# 
  3568  0E24                     	;# 
  3569  0E25                     	;# 
  3570  0E26                     	;# 
  3571  0E27                     	;# 
  3572  0E28                     	;# 
  3573  0E29                     	;# 
  3574  0E2A                     	;# 
  3575  0E2B                     	;# 
  3576  0E2C                     	;# 
  3577  0E2D                     	;# 
  3578  0E2E                     	;# 
  3579  0E2F                     	;# 
  3580  0E30                     	;# 
  3581  0E31                     	;# 
  3582  0E32                     	;# 
  3583  0E33                     	;# 
  3584  0E34                     	;# 
  3585  0E35                     	;# 
  3586  0E36                     	;# 
  3587  0E37                     	;# 
  3588  0E8F                     	;# 
  3589  0E90                     	;# 
  3590  0E91                     	;# 
  3591  0E92                     	;# 
  3592  0E93                     	;# 
  3593  0E94                     	;# 
  3594  0E95                     	;# 
  3595  0E96                     	;# 
  3596  0E97                     	;# 
  3597  0E9C                     	;# 
  3598  0E9D                     	;# 
  3599  0E9E                     	;# 
  3600  0EA1                     	;# 
  3601  0EA2                     	;# 
  3602  0EA3                     	;# 
  3603  0EA4                     	;# 
  3604  0EA5                     	;# 
  3605  0EA9                     	;# 
  3606  0EAA                     	;# 
  3607  0EAB                     	;# 
  3608  0EAC                     	;# 
  3609  0EB1                     	;# 
  3610  0EB2                     	;# 
  3611  0EB3                     	;# 
  3612  0EB8                     	;# 
  3613  0EB9                     	;# 
  3614  0EBA                     	;# 
  3615  0EBB                     	;# 
  3616  0EBC                     	;# 
  3617  0EBD                     	;# 
  3618  0EBE                     	;# 
  3619  0EC3                     	;# 
  3620  0EC5                     	;# 
  3621  0EC6                     	;# 
  3622  0EC7                     	;# 
  3623  0EC8                     	;# 
  3624  0EC9                     	;# 
  3625  0ECA                     	;# 
  3626  0ECB                     	;# 
  3627  0ECC                     	;# 
  3628  0F10                     	;# 
  3629  0F11                     	;# 
  3630  0F12                     	;# 
  3631  0F13                     	;# 
  3632  0F14                     	;# 
  3633  0F15                     	;# 
  3634  0F16                     	;# 
  3635  0F17                     	;# 
  3636  0F18                     	;# 
  3637  0F19                     	;# 
  3638  0F1A                     	;# 
  3639  0F1B                     	;# 
  3640  0F1C                     	;# 
  3641  0F1D                     	;# 
  3642  0F1E                     	;# 
  3643  0F1F                     	;# 
  3644  0F20                     	;# 
  3645  0F21                     	;# 
  3646  0F22                     	;# 
  3647  0F23                     	;# 
  3648  0F24                     	;# 
  3649  0F25                     	;# 
  3650  0F26                     	;# 
  3651  0F27                     	;# 
  3652  0F38                     	;# 
  3653  0F39                     	;# 
  3654  0F3A                     	;# 
  3655  0F3B                     	;# 
  3656  0F3C                     	;# 
  3657  0F3D                     	;# 
  3658  0F3E                     	;# 
  3659  0F3F                     	;# 
  3660  0F40                     	;# 
  3661  0F41                     	;# 
  3662  0F43                     	;# 
  3663  0F44                     	;# 
  3664  0F45                     	;# 
  3665  0F46                     	;# 
  3666  0F47                     	;# 
  3667  0F48                     	;# 
  3668  0F49                     	;# 
  3669  0F4A                     	;# 
  3670  0F4B                     	;# 
  3671  0F4C                     	;# 
  3672  0F4E                     	;# 
  3673  0F4F                     	;# 
  3674  0F50                     	;# 
  3675  0F51                     	;# 
  3676  0F52                     	;# 
  3677  0F53                     	;# 
  3678  0F54                     	;# 
  3679  0F55                     	;# 
  3680  0F56                     	;# 
  3681  0F57                     	;# 
  3682  0F65                     	;# 
  3683  0F68                     	;# 
  3684  0F69                     	;# 
  3685  0F6A                     	;# 
  3686  0F6B                     	;# 
  3687  0FE4                     	;# 
  3688  0FE5                     	;# 
  3689  0FE6                     	;# 
  3690  0FE7                     	;# 
  3691  0FE8                     	;# 
  3692  0FE9                     	;# 
  3693  0FEA                     	;# 
  3694  0FEB                     	;# 
  3695  0FED                     	;# 
  3696  0FEE                     	;# 
  3697  0FEF                     	;_Coulomb_Data
  3698                           
  3699                           	psect	idataBANK0
  3700  039B                     __pidataBANK0:
  3701                           
  3702                           ;initializer for main@F12063
  3703  039B  3401               	retlw	1
  3704  039C  3403               	retlw	3
  3705  039D  3400               	retlw	0
  3706  039E  3403               	retlw	3
  3707  039F  3400               	retlw	0
  3708  03A0  3420               	retlw	32
  3709  03A1  34B4               	retlw	180
  3710  03A2  3412               	retlw	18
  3711                           
  3712                           	psect	nvBANK0
  3713  004C                     __pnvBANK0:
  3714  004C                     _EUSART_ErrorHandler:
  3715  004C                     	ds	2
  3716  004E                     _EUSART_OverrunErrorHandler:
  3717  004E                     	ds	2
  3718  0050                     _EUSART_FramingErrorHandler:
  3719  0050                     	ds	2
  3720  0052                     _EUSART_RxDefaultInterruptHandler:
  3721  0052                     	ds	2
  3722  0016                     _LATAbits	set	22
  3723  000B                     _INTCONbits	set	11
  3724  001E                     _T0CON0bits	set	30
  3725  001E                     _T0CON0	set	30
  3726  001C                     _TMR0L	set	28
  3727  001D                     _TMR0H	set	29
  3728  001F                     _T0CON1	set	31
  3729  0013                     _TRISC	set	19
  3730  0012                     _TRISB	set	18
  3731  0011                     _TRISA	set	17
  3732  0018                     _LATC	set	24
  3733  0017                     _LATB	set	23
  3734  0016                     _LATA	set	22
  3735  0119                     _RC1REG	set	281
  3736  011D                     _RC1STAbits	set	285
  3737  011A                     _TX1REG	set	282
  3738  011E                     _TX1STAbits	set	286
  3739  011C                     _SP1BRGH	set	284
  3740  011B                     _SP1BRGL	set	283
  3741  011E                     _TX1STA	set	286
  3742  011D                     _RC1STA	set	285
  3743  011F                     _BAUD1CON	set	287
  3744  070C                     _PIR0bits	set	1804
  3745  070F                     _PIR3bits	set	1807
  3746  0719                     _PIE3bits	set	1817
  3747  079B                     _PMD5	set	1947
  3748  079A                     _PMD4	set	1946
  3749  0799                     _PMD3	set	1945
  3750  0798                     _PMD2	set	1944
  3751  0797                     _PMD1	set	1943
  3752  0796                     _PMD0	set	1942
  3753  0892                     _OSCTUNE	set	2194
  3754  0893                     _OSCFRQ	set	2195
  3755  0891                     _OSCEN	set	2193
  3756  088F                     _OSCCON3	set	2191
  3757  088D                     _OSCCON1	set	2189
  3758  0ECB                     _RXPPS	set	3787
  3759  0F26                     _RC6PPS	set	3878
  3760  0F68                     _INLVLE	set	3944
  3761  0F52                     _INLVLC	set	3922
  3762  0F47                     _INLVLB	set	3911
  3763  0F3C                     _INLVLA	set	3900
  3764  0F51                     _SLRCONC	set	3921
  3765  0F46                     _SLRCONB	set	3910
  3766  0F3B                     _SLRCONA	set	3899
  3767  0F50                     _ODCONC	set	3920
  3768  0F45                     _ODCONB	set	3909
  3769  0F3A                     _ODCONA	set	3898
  3770  0F4F                     _WPUC	set	3919
  3771  0F39                     _WPUA	set	3897
  3772  0F44                     _WPUB	set	3908
  3773  0F65                     _WPUE	set	3941
  3774  0F38                     _ANSELA	set	3896
  3775  0F43                     _ANSELB	set	3907
  3776  0F4E                     _ANSELC	set	3918
  3777                           
  3778                           	psect	cinit
  3779  0029                     start_initialization:	
  3780                           ; #config settings
  3781                           
  3782  0029                     __initialization:	;BIGRAM
  3783                           
  3784                           ; Initialize objects allocated to BANK0
  3785  0029  309B               	movlw	low __pidataBANK0
  3786  002A  0084               	movwf	4
  3787  002B  3083               	movlw	(high __pidataBANK0)| (0+128)
  3788  002C  0085               	movwf	5
  3789  002D  0012               	moviw fsr0++
  3790  002E  00D4               	movwf	__pdataBANK0& (0+127)
  3791  002F  0012               	moviw fsr0++
  3792  0030  00D5               	movwf	(__pdataBANK0+1)& (0+127)
  3793  0031  0012               	moviw fsr0++
  3794  0032  00D6               	movwf	(__pdataBANK0+2)& (0+127)
  3795  0033  0012               	moviw fsr0++
  3796  0034  00D7               	movwf	(__pdataBANK0+3)& (0+127)
  3797  0035  0012               	moviw fsr0++
  3798  0036  00D8               	movwf	(__pdataBANK0+4)& (0+127)
  3799  0037  0012               	moviw fsr0++
  3800  0038  00D9               	movwf	(__pdataBANK0+5)& (0+127)
  3801  0039  0012               	moviw fsr0++
  3802  003A  00DA               	movwf	(__pdataBANK0+6)& (0+127)
  3803  003B  0012               	moviw fsr0++
  3804  003C  00DB               	movwf	(__pdataBANK0+7)& (0+127)
  3805                           
  3806                           ; Clear objects allocated to BIGRAM
  3807  003D  3022               	movlw	low (0+8482)
  3808  003E  0084               	movwf	4
  3809  003F  3021               	movlw	high (0+8482)
  3810  0040  0085               	movwf	5
  3811  0041  30CE               	movlw	206
  3812  0042  00FE               	movwf	btemp
  3813  0043  3000               	movlw	0
  3814  0044  00FF               	movwf	btemp+1
  3815  0045  3183  2370  3180   	fcall	clear_ram0
  3816                           
  3817                           ; Clear objects allocated to COMMON
  3818  0048  01F8               	clrf	__pbssCOMMON& (0+127)
  3819  0049  01F9               	clrf	(__pbssCOMMON+1)& (0+127)
  3820  004A  01FA               	clrf	(__pbssCOMMON+2)& (0+127)
  3821                           
  3822                           ; Clear objects allocated to BANK0
  3823  004B  01DC               	clrf	__pbssBANK0& (0+127)
  3824  004C  01DD               	clrf	(__pbssBANK0+1)& (0+127)
  3825  004D  01DE               	clrf	(__pbssBANK0+2)& (0+127)
  3826  004E  01DF               	clrf	(__pbssBANK0+3)& (0+127)
  3827                           
  3828                           ; Clear objects allocated to BANK1
  3829  004F  30A0               	movlw	low __pbssBANK1
  3830  0050  0084               	movwf	4
  3831  0051  3000               	movlw	high __pbssBANK1
  3832  0052  0085               	movwf	5
  3833  0053  3045               	movlw	69
  3834  0054  00FE               	movwf	btemp
  3835  0055  3000               	movlw	0
  3836  0056  00FF               	movwf	btemp+1
  3837  0057  3183  2370  3180   	fcall	clear_ram0
  3838                           
  3839                           ; Clear objects allocated to BANK2
  3840  005A  3020               	movlw	low __pbssBANK2
  3841  005B  0084               	movwf	4
  3842  005C  3001               	movlw	high __pbssBANK2
  3843  005D  0085               	movwf	5
  3844  005E  3045               	movlw	69
  3845  005F  00FE               	movwf	btemp
  3846  0060  3000               	movlw	0
  3847  0061  00FF               	movwf	btemp+1
  3848  0062  3183  2370  3180   	fcall	clear_ram0
  3849  0065                     end_of_initialization:	
  3850                           ;End of C runtime variable initialization code
  3851                           
  3852  0065                     __end_of__initialization:
  3853  0065  107E               	bcf	int$flags,0	;clear compiler interrupt flag (level 1)
  3854  0066  0020               	movlb	0
  3855  0067  3181  299C         	ljmp	_main	;jump to C main() function
  3856                           
  3857                           	psect	bssCOMMON
  3858  0078                     __pbssCOMMON:
  3859  0078                     _eusartRxCount:
  3860  0078                     	ds	1
  3861  0079                     _eusartRxTail:
  3862  0079                     	ds	1
  3863  007A                     _eusartRxHead:
  3864  007A                     	ds	1
  3865                           
  3866                           	psect	bssBANK0
  3867  005C                     __pbssBANK0:
  3868  005C                     _i:
  3869  005C                     	ds	2
  3870  005E                     _ch:
  3871  005E                     	ds	1
  3872  005F                     _eusartRxLastError:
  3873  005F                     	ds	1
  3874                           
  3875                           	psect	dataBANK0
  3876  0054                     __pdataBANK0:
  3877  0054                     main@F12063:
  3878  0054                     	ds	8
  3879                           
  3880                           	psect	bssBANK1
  3881  00A0                     __pbssBANK1:
  3882  00A0                     _eusartRxStatusBuffer:
  3883  00A0                     	ds	69
  3884                           
  3885                           	psect	bssBANK2
  3886  0120                     __pbssBANK2:
  3887  0120                     _eusartRxBuffer:
  3888  0120                     	ds	69
  3889                           
  3890                           	psect	clrtext
  3891  0370                     clear_ram0:	
  3892                           ;	Called with FSR0 containing the base address, and
  3893                           ;	btemp/btemp+1 has the size to clear
  3894                           
  3895  0370  0064               	clrwdt	;clear the watchdog before getting into this loop
  3896  0371                     clrloop0:
  3897  0371  0180               	clrf	0	;clear RAM location pointed to by FSR
  3898  0372  3101               	addfsr 0,1
  3899  0373  3001               	movlw	1
  3900  0374  02FE               	subwf	btemp,f
  3901  0375  3000               	movlw	0
  3902  0376  3BFF               	subwfb	btemp+1,f
  3903  0377  087F               	movf	btemp+1,w
  3904  0378  047E               	iorwf	btemp,w
  3905  0379  1D03               	skipz
  3906  037A  2B71               	goto	clrloop0	;have we reached the end yet?
  3907  037B  3400               	retlw	0	;all done for this memory range, return
  3908                           
  3909                           	psect	cstackCOMMON
  3910  0070                     __pcstackCOMMON:
  3911  0070                     ?_EUSART_Receive_ISR:
  3912  0070                     ?_EUSART_DefaultFramingErrorHandler:	
  3913                           ; 1 bytes @ 0x0
  3914                           
  3915  0070                     ??_EUSART_DefaultFramingErrorHandler:	
  3916                           ; 1 bytes @ 0x0
  3917                           
  3918  0070                     ?_EUSART_DefaultOverrunErrorHandler:	
  3919                           ; 1 bytes @ 0x0
  3920                           
  3921  0070                     ??_EUSART_DefaultOverrunErrorHandler:	
  3922                           ; 1 bytes @ 0x0
  3923                           
  3924  0070                     ?_EUSART_DefaultErrorHandler:	
  3925                           ; 1 bytes @ 0x0
  3926                           
  3927  0070                     ?_EUSART_RxDataHandler:	
  3928                           ; 1 bytes @ 0x0
  3929                           
  3930  0070                     ??_EUSART_RxDataHandler:	
  3931                           ; 1 bytes @ 0x0
  3932                           
  3933  0070                     ?_PMD_Initialize:	
  3934                           ; 1 bytes @ 0x0
  3935                           
  3936  0070                     ?_PIN_MANAGER_Initialize:	
  3937                           ; 1 bytes @ 0x0
  3938                           
  3939  0070                     ?_OSCILLATOR_Initialize:	
  3940                           ; 1 bytes @ 0x0
  3941                           
  3942  0070                     ?_TMR0_Initialize:	
  3943                           ; 1 bytes @ 0x0
  3944                           
  3945  0070                     ?_EUSART_Initialize:	
  3946                           ; 1 bytes @ 0x0
  3947                           
  3948  0070                     ?_EUSART_Read:	
  3949                           ; 1 bytes @ 0x0
  3950                           
  3951  0070                     ?_EUSART_Write:	
  3952                           ; 1 bytes @ 0x0
  3953                           
  3954  0070                     ?_SYSTEM_Initialize:	
  3955                           ; 1 bytes @ 0x0
  3956                           
  3957  0070                     ?_TMR0_ReadTimer:	
  3958                           ; 1 bytes @ 0x0
  3959                           
  3960  0070                     ?_INTERRUPT_InterruptManager:	
  3961                           ; 1 bytes @ 0x0
  3962                           
  3963  0070                     ?_main:	
  3964                           ; 1 bytes @ 0x0
  3965                           
  3966                           
  3967                           ; 1 bytes @ 0x0
  3968  0070                     	ds	3
  3969  0073                     ?_EUSART_SetRxInterruptHandler:
  3970  0073                     ??_EUSART_Receive_ISR:	
  3971                           ; 1 bytes @ 0x3
  3972                           
  3973  0073                     ?_EUSART_SetFramingErrorHandler:	
  3974                           ; 1 bytes @ 0x3
  3975                           
  3976  0073                     ?_EUSART_SetOverrunErrorHandler:	
  3977                           ; 1 bytes @ 0x3
  3978                           
  3979  0073                     ?_EUSART_SetErrorHandler:	
  3980                           ; 1 bytes @ 0x3
  3981                           
  3982  0073                     ??_EUSART_DefaultErrorHandler:	
  3983                           ; 1 bytes @ 0x3
  3984                           
  3985  0073                     ??_PMD_Initialize:	
  3986                           ; 1 bytes @ 0x3
  3987                           
  3988  0073                     ??_PIN_MANAGER_Initialize:	
  3989                           ; 1 bytes @ 0x3
  3990                           
  3991  0073                     ??_OSCILLATOR_Initialize:	
  3992                           ; 1 bytes @ 0x3
  3993                           
  3994  0073                     ??_TMR0_Initialize:	
  3995                           ; 1 bytes @ 0x3
  3996                           
  3997  0073                     ??_EUSART_Read:	
  3998                           ; 1 bytes @ 0x3
  3999                           
  4000  0073                     ??_EUSART_Write:	
  4001                           ; 1 bytes @ 0x3
  4002                           
  4003  0073                     ??_TMR0_ReadTimer:	
  4004                           ; 1 bytes @ 0x3
  4005                           
  4006  0073                     ??_INTERRUPT_InterruptManager:	
  4007                           ; 1 bytes @ 0x3
  4008                           
  4009  0073                     ?___lwdiv:	
  4010                           ; 1 bytes @ 0x3
  4011                           
  4012  0073                     EUSART_Write@txData:	
  4013                           ; 2 bytes @ 0x3
  4014                           
  4015  0073                     EUSART_SetFramingErrorHandler@interruptHandler:	
  4016                           ; 1 bytes @ 0x3
  4017                           
  4018  0073                     EUSART_SetOverrunErrorHandler@interruptHandler:	
  4019                           ; 2 bytes @ 0x3
  4020                           
  4021  0073                     EUSART_SetErrorHandler@interruptHandler:	
  4022                           ; 2 bytes @ 0x3
  4023                           
  4024  0073                     EUSART_SetRxInterruptHandler@interruptHandler:	
  4025                           ; 2 bytes @ 0x3
  4026                           
  4027  0073                     ___lwdiv@divisor:	
  4028                           ; 2 bytes @ 0x3
  4029                           
  4030                           
  4031                           ; 2 bytes @ 0x3
  4032  0073                     	ds	1
  4033  0074                     EUSART_Read@readValue:
  4034  0074                     TMR0_ReadTimer@readVal:	
  4035                           ; 1 bytes @ 0x4
  4036                           
  4037                           
  4038                           ; 1 bytes @ 0x4
  4039  0074                     	ds	1
  4040  0075                     ??_EUSART_SetRxInterruptHandler:
  4041  0075                     ??_EUSART_SetFramingErrorHandler:	
  4042                           ; 1 bytes @ 0x5
  4043                           
  4044  0075                     ??_EUSART_SetOverrunErrorHandler:	
  4045                           ; 1 bytes @ 0x5
  4046                           
  4047  0075                     ??_EUSART_SetErrorHandler:	
  4048                           ; 1 bytes @ 0x5
  4049                           
  4050  0075                     ??_EUSART_Initialize:	
  4051                           ; 1 bytes @ 0x5
  4052                           
  4053  0075                     ??_SYSTEM_Initialize:	
  4054                           ; 1 bytes @ 0x5
  4055                           
  4056  0075                     ___lwdiv@dividend:	
  4057                           ; 1 bytes @ 0x5
  4058                           
  4059                           
  4060                           ; 2 bytes @ 0x5
  4061  0075                     	ds	2
  4062  0077                     ??___lwdiv:
  4063                           
  4064                           ; 1 bytes @ 0x7
  4065  0077                     	ds	1
  4066                           
  4067                           	psect	cstackBANK0
  4068  0020                     __pcstackBANK0:
  4069  0020                     ___lwdiv@counter:
  4070                           
  4071                           ; 1 bytes @ 0x0
  4072  0020                     	ds	1
  4073  0021                     ___lwdiv@quotient:
  4074                           
  4075                           ; 2 bytes @ 0x1
  4076  0021                     	ds	2
  4077  0023                     ?_Get_Voltage:
  4078  0023                     Get_Voltage@k:	
  4079                           ; 2 bytes @ 0x3
  4080                           
  4081                           
  4082                           ; 2 bytes @ 0x3
  4083  0023                     	ds	2
  4084  0025                     ??_Get_Voltage:
  4085                           
  4086                           ; 1 bytes @ 0x5
  4087  0025                     	ds	17
  4088  0036                     ??_main:
  4089                           
  4090                           ; 1 bytes @ 0x16
  4091  0036                     	ds	2
  4092  0038                     main@out:
  4093                           
  4094                           ; 8 bytes @ 0x18
  4095  0038                     	ds	12
  4096  0044                     main@index:
  4097                           
  4098                           ; 2 bytes @ 0x24
  4099  0044                     	ds	2
  4100  0046                     main@i:
  4101                           
  4102                           ; 2 bytes @ 0x26
  4103  0046                     	ds	2
  4104  0048                     main@j:
  4105                           
  4106                           ; 2 bytes @ 0x28
  4107  0048                     	ds	2
  4108  004A                     main@H_L_counter:
  4109                           
  4110                           ; 2 bytes @ 0x2A
  4111  004A                     	ds	2
  4112                           
  4113                           	psect	maintext
  4114  019C                     __pmaintext:	
  4115 ;;
  4116 ;;Main: autosize = 0, tempsize = 2, incstack = 0, save=0
  4117 ;;
  4118 ;; *************** function _main *****************
  4119 ;; Defined at:
  4120 ;;		line 48 in file "main.c"
  4121 ;; Parameters:    Size  Location     Type
  4122 ;;		None
  4123 ;; Auto vars:     Size  Location     Type
  4124 ;;  index           2   36[BANK0 ] PTR unsigned int 
  4125 ;;		 -> Coulomb_Data.ID(2), Coulomb_Data(206), 
  4126 ;;  v               2    0        int 
  4127 ;;  out             8   24[BANK0 ] unsigned char [8]
  4128 ;;  H_L_counter     2   42[BANK0 ] int 
  4129 ;;  j               2   40[BANK0 ] int 
  4130 ;;  i               2   38[BANK0 ] int 
  4131 ;;  a               2    0        int 
  4132 ;; Return value:  Size  Location     Type
  4133 ;;                  1    wreg      void 
  4134 ;; Registers used:
  4135 ;;		wreg, fsr0l, fsr0h, fsr1l, fsr1h, status,2, status,0, pclath, cstack
  4136 ;; Tracked objects:
  4137 ;;		On entry : B1F/0
  4138 ;;		On exit  : 0/0
  4139 ;;		Unchanged: 0/0
  4140 ;; Data sizes:     COMMON   BANK0   BANK1   BANK2   BANK3   BANK4   BANK5   BANK6
  4141 ;;      Params:         0       0       0       0       0       0       0       0
  4142 ;;      Locals:         0      20       0       0       0       0       0       0
  4143 ;;      Temps:          0       2       0       0       0       0       0       0
  4144 ;;      Totals:         0      22       0       0       0       0       0       0
  4145 ;;Total ram usage:       22 bytes
  4146 ;; Hardware stack levels required when called:    7
  4147 ;; This function calls:
  4148 ;;		_EUSART_Read
  4149 ;;		_EUSART_Write
  4150 ;;		_Get_Voltage
  4151 ;;		_SYSTEM_Initialize
  4152 ;;		_TMR0_ReadTimer
  4153 ;; This function is called by:
  4154 ;;		Startup code after reset
  4155 ;; This function uses a non-reentrant model
  4156 ;;
  4157                           
  4158                           
  4159                           ;psect for function _main
  4160  019C                     _main:
  4161  019C                     l1582:	
  4162                           ;incstack = 0
  4163                           ; Regs used in _main: [wreg-fsr1h+status,2+status,0+pclath+cstack]
  4164                           
  4165                           
  4166                           ;main.c: 51:     SYSTEM_Initialize();
  4167  019C  3183  2360  3181   	fcall	_SYSTEM_Initialize
  4168  019F                     l1584:
  4169                           
  4170                           ;main.c: 56:     (INTCONbits.GIE = 1);
  4171  019F  178B               	bsf	11,7	;volatile
  4172  01A0                     l1586:
  4173                           
  4174                           ;main.c: 59:     (INTCONbits.PEIE = 1);
  4175  01A0  170B               	bsf	11,6	;volatile
  4176  01A1                     l1588:
  4177                           
  4178                           ;main.c: 62:     unsigned char out[8]={0x01,0x03,0x00,0x03,0x00,0x20,0xB4,0x12};
  4179  01A1  3054               	movlw	low main@F12063
  4180  01A2  0086               	movwf	6
  4181  01A3  3000               	movlw	high main@F12063
  4182  01A4  0087               	movwf	7
  4183  01A5  3038               	movlw	low main@out
  4184  01A6  0084               	movwf	4
  4185  01A7  3000               	movlw	high main@out
  4186  01A8  0085               	movwf	5
  4187  01A9  3008               	movlw	8
  4188  01AA  0020               	movlb	0	; select bank0
  4189  01AB  00B6               	movwf	??_main
  4190  01AC                     u780:
  4191  01AC  0016               	moviw fsr1++
  4192  01AD  001A               	movwi fsr0++
  4193  01AE  0BB6               	decfsz	??_main,f
  4194  01AF  29AC               	goto	u780
  4195  01B0                     l1590:
  4196  01B0                     l1592:
  4197                           
  4198                           ;main.c: 65:     int H_L_counter=0;
  4199  01B0  01CA               	clrf	main@H_L_counter
  4200  01B1  01CB               	clrf	main@H_L_counter+1
  4201  01B2                     l1594:
  4202                           
  4203                           ;main.c: 68:         if(TMR0_ReadTimer()==0){
  4204  01B2  3183  23AB  3181   	fcall	_TMR0_ReadTimer
  4205  01B5  3A00               	xorlw	0
  4206  01B6  1D03               	skipz
  4207  01B7  29B9               	goto	u791
  4208  01B8  29BA               	goto	u790
  4209  01B9                     u791:
  4210  01B9  29D9               	goto	l1610
  4211  01BA                     u790:
  4212  01BA                     l1596:
  4213                           
  4214                           ;main.c: 69:             for(i=0;i<8;i++){
  4215  01BA  0020               	movlb	0	; select bank0
  4216  01BB  01C6               	clrf	main@i
  4217  01BC  01C7               	clrf	main@i+1
  4218  01BD                     l1602:
  4219                           
  4220                           ;main.c: 70:                 EUSART_Write(out[i]);
  4221  01BD  0020               	movlb	0	; select bank0
  4222  01BE  0846               	movf	main@i,w
  4223  01BF  3E38               	addlw	(low (main@out| 0))& (0+255)
  4224  01C0  0086               	movwf	6
  4225  01C1  0187               	clrf	7
  4226  01C2  0801               	movf	1,w
  4227  01C3  3183  2388  3181   	fcall	_EUSART_Write
  4228  01C6                     l1604:
  4229                           
  4230                           ;main.c: 71:                 __nop();
  4231  01C6  0000               	nop
  4232  01C7                     l1606:
  4233                           
  4234                           ;main.c: 72:             }
  4235  01C7  3001               	movlw	1
  4236  01C8  0020               	movlb	0	; select bank0
  4237  01C9  07C6               	addwf	main@i,f
  4238  01CA  3000               	movlw	0
  4239  01CB  3DC7               	addwfc	main@i+1,f
  4240  01CC                     l1608:
  4241  01CC  0847               	movf	main@i+1,w
  4242  01CD  3A80               	xorlw	128
  4243  01CE  00B6               	movwf	??_main
  4244  01CF  3080               	movlw	128
  4245  01D0  0236               	subwf	??_main,w
  4246  01D1  1D03               	skipz
  4247  01D2  29D5               	goto	u805
  4248  01D3  3008               	movlw	8
  4249  01D4  0246               	subwf	main@i,w
  4250  01D5                     u805:
  4251  01D5  1C03               	skipc
  4252  01D6  29D8               	goto	u801
  4253  01D7  29D9               	goto	u800
  4254  01D8                     u801:
  4255  01D8  29BD               	goto	l1602
  4256  01D9                     u800:
  4257  01D9                     l1610:
  4258                           
  4259                           ;main.c: 74:         if(eusartRxCount == 69){
  4260  01D9  3045               	movlw	69
  4261  01DA  0678               	xorwf	_eusartRxCount,w	;volatile
  4262  01DB  1D03               	btfss	3,2
  4263  01DC  29DE               	goto	u811
  4264  01DD  29DF               	goto	u810
  4265  01DE                     u811:
  4266  01DE  29B2               	goto	l1594
  4267  01DF                     u810:
  4268  01DF                     l1612:
  4269                           
  4270                           ;main.c: 75:             unsigned int *index;;main.c: 76:             index=&Coulomb_Dat
      +                          a.ID;
  4271  01DF  3022               	movlw	34
  4272  01E0  0020               	movlb	0	; select bank0
  4273  01E1  00C4               	movwf	main@index
  4274  01E2  3021               	movlw	33
  4275  01E3  00C5               	movwf	main@index+1
  4276                           
  4277                           ;main.c: 77:             while(eusartRxCount != 0){
  4278  01E4  2A26               	goto	l1628
  4279  01E5                     l1614:
  4280                           
  4281                           ;main.c: 78:                 *index = EUSART_Read();
  4282  01E5  3183  231D  3181   	fcall	_EUSART_Read
  4283  01E8  0020               	movlb	0	; select bank0
  4284  01E9  00B6               	movwf	??_main
  4285  01EA  01B7               	clrf	??_main+1
  4286  01EB  0844               	movf	main@index,w
  4287  01EC  0086               	movwf	6
  4288  01ED  0845               	movf	main@index+1,w
  4289  01EE  0087               	movwf	7
  4290  01EF  0836               	movf	??_main,w
  4291  01F0  3FC0               	movwi [0]fsr1
  4292  01F1  0837               	movf	??_main+1,w
  4293  01F2  3FC1               	movwi [1]fsr1
  4294  01F3                     l1616:
  4295                           
  4296                           ;main.c: 79:                 H_L_counter++;
  4297  01F3  3001               	movlw	1
  4298  01F4  07CA               	addwf	main@H_L_counter,f
  4299  01F5  3000               	movlw	0
  4300  01F6  3DCB               	addwfc	main@H_L_counter+1,f
  4301  01F7                     l1618:
  4302                           
  4303                           ;main.c: 80:                 if((H_L_counter<=3)||(H_L_counter>=0x43)){
  4304  01F7  084B               	movf	main@H_L_counter+1,w
  4305  01F8  3A80               	xorlw	128
  4306  01F9  00B6               	movwf	??_main
  4307  01FA  3080               	movlw	128
  4308  01FB  0236               	subwf	??_main,w
  4309  01FC  1D03               	skipz
  4310  01FD  2A00               	goto	u825
  4311  01FE  3004               	movlw	4
  4312  01FF  024A               	subwf	main@H_L_counter,w
  4313  0200                     u825:
  4314  0200  1C03               	skipc
  4315  0201  2A03               	goto	u821
  4316  0202  2A04               	goto	u820
  4317  0203                     u821:
  4318  0203  2A12               	goto	l1622
  4319  0204                     u820:
  4320  0204                     l1620:
  4321  0204  0020               	movlb	0	; select bank0
  4322  0205  084B               	movf	main@H_L_counter+1,w
  4323  0206  3A80               	xorlw	128
  4324  0207  00B6               	movwf	??_main
  4325  0208  3080               	movlw	128
  4326  0209  0236               	subwf	??_main,w
  4327  020A  1D03               	skipz
  4328  020B  2A0E               	goto	u835
  4329  020C  3043               	movlw	67
  4330  020D  024A               	subwf	main@H_L_counter,w
  4331  020E                     u835:
  4332  020E  1C03               	skipc
  4333  020F  2A11               	goto	u831
  4334  0210  2A12               	goto	u830
  4335  0211                     u831:
  4336  0211  2A18               	goto	l315
  4337  0212                     u830:
  4338  0212                     l1622:
  4339                           
  4340                           ;main.c: 81:                     index++;
  4341  0212  3002               	movlw	2
  4342  0213  0020               	movlb	0	; select bank0
  4343  0214  07C4               	addwf	main@index,f
  4344  0215  3000               	movlw	0
  4345  0216  3DC5               	addwfc	main@index+1,f
  4346                           
  4347                           ;main.c: 82:                 }
  4348  0217  2A26               	goto	l1628
  4349  0218                     l315:	
  4350                           ;main.c: 83:                 else{
  4351                           
  4352                           
  4353                           ;main.c: 84:                     if((H_L_counter%2)==0) index+=0x20;
  4354  0218  0020               	movlb	0	; select bank0
  4355  0219  184A               	btfsc	main@H_L_counter,0
  4356  021A  2A1C               	goto	u841
  4357  021B  2A1D               	goto	u840
  4358  021C                     u841:
  4359  021C  2A22               	goto	l1626
  4360  021D                     u840:
  4361  021D                     l1624:
  4362  021D  3040               	movlw	64
  4363  021E  07C4               	addwf	main@index,f
  4364  021F  3000               	movlw	0
  4365  0220  3DC5               	addwfc	main@index+1,f
  4366  0221  2A26               	goto	l1628
  4367  0222                     l1626:
  4368  0222  303E               	movlw	62
  4369  0223  02C4               	subwf	main@index,f
  4370  0224  3000               	movlw	0
  4371  0225  3BC5               	subwfb	main@index+1,f
  4372  0226                     l1628:
  4373                           
  4374                           ;main.c: 77:             while(eusartRxCount != 0){
  4375  0226  0878               	movf	_eusartRxCount,w	;volatile
  4376  0227  1D03               	btfss	3,2
  4377  0228  2A2A               	goto	u851
  4378  0229  2A2B               	goto	u850
  4379  022A                     u851:
  4380  022A  29E5               	goto	l1614
  4381  022B                     u850:
  4382  022B                     l1630:
  4383                           
  4384                           ;main.c: 89:             for(j=0;j<=31;j++){
  4385  022B  01C8               	clrf	main@j
  4386  022C  01C9               	clrf	main@j+1
  4387  022D                     l1636:
  4388                           
  4389                           ;main.c: 90:                 Get_Voltage(j);
  4390  022D  0020               	movlb	0	; select bank0
  4391  022E  0849               	movf	main@j+1,w
  4392  022F  00A4               	movwf	Get_Voltage@k+1
  4393  0230  0848               	movf	main@j,w
  4394  0231  00A3               	movwf	Get_Voltage@k
  4395  0232  3180  2069  3181   	fcall	_Get_Voltage
  4396  0235                     l1638:
  4397                           
  4398                           ;main.c: 91:             }
  4399  0235  3001               	movlw	1
  4400  0236  0020               	movlb	0	; select bank0
  4401  0237  07C8               	addwf	main@j,f
  4402  0238  3000               	movlw	0
  4403  0239  3DC9               	addwfc	main@j+1,f
  4404  023A                     l1640:
  4405  023A  0849               	movf	main@j+1,w
  4406  023B  3A80               	xorlw	128
  4407  023C  00B6               	movwf	??_main
  4408  023D  3080               	movlw	128
  4409  023E  0236               	subwf	??_main,w
  4410  023F  1D03               	skipz
  4411  0240  2A43               	goto	u865
  4412  0241  3020               	movlw	32
  4413  0242  0248               	subwf	main@j,w
  4414  0243                     u865:
  4415  0243  1C03               	skipc
  4416  0244  2A46               	goto	u861
  4417  0245  2A47               	goto	u860
  4418  0246                     u861:
  4419  0246  2A2D               	goto	l1636
  4420  0247                     u860:
  4421  0247                     l1642:
  4422  0247  29B2               	goto	l1594
  4423  0248  3180  2827         	ljmp	start
  4424  024A                     __end_of_main:
  4425                           
  4426                           	psect	text1
  4427  03AB                     __ptext1:	
  4428 ;; *************** function _TMR0_ReadTimer *****************
  4429 ;; Defined at:
  4430 ;;		line 92 in file "mcc_generated_files/tmr0.c"
  4431 ;; Parameters:    Size  Location     Type
  4432 ;;		None
  4433 ;; Auto vars:     Size  Location     Type
  4434 ;;  readVal         1    4[COMMON] unsigned char 
  4435 ;; Return value:  Size  Location     Type
  4436 ;;                  1    wreg      unsigned char 
  4437 ;; Registers used:
  4438 ;;		wreg
  4439 ;; Tracked objects:
  4440 ;;		On entry : 0/0
  4441 ;;		On exit  : 0/0
  4442 ;;		Unchanged: 0/0
  4443 ;; Data sizes:     COMMON   BANK0   BANK1   BANK2   BANK3   BANK4   BANK5   BANK6
  4444 ;;      Params:         0       0       0       0       0       0       0       0
  4445 ;;      Locals:         1       0       0       0       0       0       0       0
  4446 ;;      Temps:          1       0       0       0       0       0       0       0
  4447 ;;      Totals:         2       0       0       0       0       0       0       0
  4448 ;;Total ram usage:        2 bytes
  4449 ;; Hardware stack levels used:    1
  4450 ;; Hardware stack levels required when called:    4
  4451 ;; This function calls:
  4452 ;;		Nothing
  4453 ;; This function is called by:
  4454 ;;		_main
  4455 ;; This function uses a non-reentrant model
  4456 ;;
  4457                           
  4458                           
  4459                           ;psect for function _TMR0_ReadTimer
  4460  03AB                     _TMR0_ReadTimer:
  4461  03AB                     l1434:	
  4462                           ;incstack = 0
  4463                           ; Regs used in _TMR0_ReadTimer: [wreg]
  4464                           
  4465                           
  4466                           ;mcc_generated_files/tmr0.c: 94:     uint8_t readVal;;mcc_generated_files/tmr0.c: 97:   
      +                            readVal = TMR0L;
  4467  03AB  0020               	movlb	0	; select bank0
  4468  03AC  081C               	movf	28,w	;volatile
  4469  03AD  00F3               	movwf	??_TMR0_ReadTimer
  4470  03AE  0873               	movf	??_TMR0_ReadTimer,w
  4471  03AF  00F4               	movwf	TMR0_ReadTimer@readVal
  4472                           
  4473                           ;mcc_generated_files/tmr0.c: 99:     return readVal;
  4474  03B0  0874               	movf	TMR0_ReadTimer@readVal,w
  4475  03B1                     l249:
  4476  03B1  0008               	return
  4477  03B2                     __end_of_TMR0_ReadTimer:
  4478                           
  4479                           	psect	text2
  4480  0360                     __ptext2:	
  4481 ;; *************** function _SYSTEM_Initialize *****************
  4482 ;; Defined at:
  4483 ;;		line 50 in file "mcc_generated_files/mcc.c"
  4484 ;; Parameters:    Size  Location     Type
  4485 ;;		None
  4486 ;; Auto vars:     Size  Location     Type
  4487 ;;		None
  4488 ;; Return value:  Size  Location     Type
  4489 ;;                  1    wreg      void 
  4490 ;; Registers used:
  4491 ;;		wreg, status,2, status,0, pclath, cstack
  4492 ;; Tracked objects:
  4493 ;;		On entry : 0/0
  4494 ;;		On exit  : 0/0
  4495 ;;		Unchanged: 0/0
  4496 ;; Data sizes:     COMMON   BANK0   BANK1   BANK2   BANK3   BANK4   BANK5   BANK6
  4497 ;;      Params:         0       0       0       0       0       0       0       0
  4498 ;;      Locals:         0       0       0       0       0       0       0       0
  4499 ;;      Temps:          0       0       0       0       0       0       0       0
  4500 ;;      Totals:         0       0       0       0       0       0       0       0
  4501 ;;Total ram usage:        0 bytes
  4502 ;; Hardware stack levels used:    1
  4503 ;; Hardware stack levels required when called:    6
  4504 ;; This function calls:
  4505 ;;		_EUSART_Initialize
  4506 ;;		_OSCILLATOR_Initialize
  4507 ;;		_PIN_MANAGER_Initialize
  4508 ;;		_PMD_Initialize
  4509 ;;		_TMR0_Initialize
  4510 ;; This function is called by:
  4511 ;;		_main
  4512 ;; This function uses a non-reentrant model
  4513 ;;
  4514                           
  4515                           
  4516                           ;psect for function _SYSTEM_Initialize
  4517  0360                     _SYSTEM_Initialize:
  4518  0360                     l1424:	
  4519                           ;incstack = 0
  4520                           ; Regs used in _SYSTEM_Initialize: [wreg+status,2+status,0+pclath+cstack]
  4521                           
  4522                           
  4523                           ;mcc_generated_files/mcc.c: 52:     PMD_Initialize();
  4524  0360  3183  23A3  3183   	fcall	_PMD_Initialize
  4525  0363                     l1426:
  4526                           
  4527                           ;mcc_generated_files/mcc.c: 53:     PIN_MANAGER_Initialize();
  4528  0363  3182  22F0  3183   	fcall	_PIN_MANAGER_Initialize
  4529  0366                     l1428:
  4530                           
  4531                           ;mcc_generated_files/mcc.c: 54:     OSCILLATOR_Initialize();
  4532  0366  3183  2392  3183   	fcall	_OSCILLATOR_Initialize
  4533  0369                     l1430:
  4534                           
  4535                           ;mcc_generated_files/mcc.c: 55:     TMR0_Initialize();
  4536  0369  3183  237C  3183   	fcall	_TMR0_Initialize
  4537  036C                     l1432:
  4538                           
  4539                           ;mcc_generated_files/mcc.c: 56:     EUSART_Initialize();
  4540  036C  3182  22C0  3183   	fcall	_EUSART_Initialize
  4541  036F                     l163:
  4542  036F  0008               	return
  4543  0370                     __end_of_SYSTEM_Initialize:
  4544                           
  4545                           	psect	text3
  4546  037C                     __ptext3:	
  4547 ;; *************** function _TMR0_Initialize *****************
  4548 ;; Defined at:
  4549 ;;		line 60 in file "mcc_generated_files/tmr0.c"
  4550 ;; Parameters:    Size  Location     Type
  4551 ;;		None
  4552 ;; Auto vars:     Size  Location     Type
  4553 ;;		None
  4554 ;; Return value:  Size  Location     Type
  4555 ;;                  1    wreg      void 
  4556 ;; Registers used:
  4557 ;;		wreg, status,2
  4558 ;; Tracked objects:
  4559 ;;		On entry : 0/0
  4560 ;;		On exit  : 0/0
  4561 ;;		Unchanged: 0/0
  4562 ;; Data sizes:     COMMON   BANK0   BANK1   BANK2   BANK3   BANK4   BANK5   BANK6
  4563 ;;      Params:         0       0       0       0       0       0       0       0
  4564 ;;      Locals:         0       0       0       0       0       0       0       0
  4565 ;;      Temps:          0       0       0       0       0       0       0       0
  4566 ;;      Totals:         0       0       0       0       0       0       0       0
  4567 ;;Total ram usage:        0 bytes
  4568 ;; Hardware stack levels used:    1
  4569 ;; Hardware stack levels required when called:    4
  4570 ;; This function calls:
  4571 ;;		Nothing
  4572 ;; This function is called by:
  4573 ;;		_SYSTEM_Initialize
  4574 ;; This function uses a non-reentrant model
  4575 ;;
  4576                           
  4577                           
  4578                           ;psect for function _TMR0_Initialize
  4579  037C                     _TMR0_Initialize:
  4580  037C                     l1344:	
  4581                           ;incstack = 0
  4582                           ; Regs used in _TMR0_Initialize: [wreg+status,2]
  4583                           
  4584                           
  4585                           ;mcc_generated_files/tmr0.c: 65:     T0CON1 = 0x6E;
  4586  037C  306E               	movlw	110
  4587  037D  0020               	movlb	0	; select bank0
  4588  037E  009F               	movwf	31	;volatile
  4589                           
  4590                           ;mcc_generated_files/tmr0.c: 68:     TMR0H = 0x79;
  4591  037F  3079               	movlw	121
  4592  0380  009D               	movwf	29	;volatile
  4593  0381                     l1346:
  4594                           
  4595                           ;mcc_generated_files/tmr0.c: 71:     TMR0L = 0x00;
  4596  0381  019C               	clrf	28	;volatile
  4597  0382                     l1348:
  4598                           
  4599                           ;mcc_generated_files/tmr0.c: 74:     PIR0bits.TMR0IF = 0;
  4600  0382  002E               	movlb	14	; select bank14
  4601  0383  128C               	bcf	12,5	;volatile
  4602  0384                     l1350:
  4603                           
  4604                           ;mcc_generated_files/tmr0.c: 77:     T0CON0 = 0x80;
  4605  0384  3080               	movlw	128
  4606  0385  0020               	movlb	0	; select bank0
  4607  0386  009E               	movwf	30	;volatile
  4608  0387                     l240:
  4609  0387  0008               	return
  4610  0388                     __end_of_TMR0_Initialize:
  4611                           
  4612                           	psect	text4
  4613  03A3                     __ptext4:	
  4614 ;; *************** function _PMD_Initialize *****************
  4615 ;; Defined at:
  4616 ;;		line 73 in file "mcc_generated_files/mcc.c"
  4617 ;; Parameters:    Size  Location     Type
  4618 ;;		None
  4619 ;; Auto vars:     Size  Location     Type
  4620 ;;		None
  4621 ;; Return value:  Size  Location     Type
  4622 ;;                  1    wreg      void 
  4623 ;; Registers used:
  4624 ;;		status,2
  4625 ;; Tracked objects:
  4626 ;;		On entry : 0/0
  4627 ;;		On exit  : 0/0
  4628 ;;		Unchanged: 0/0
  4629 ;; Data sizes:     COMMON   BANK0   BANK1   BANK2   BANK3   BANK4   BANK5   BANK6
  4630 ;;      Params:         0       0       0       0       0       0       0       0
  4631 ;;      Locals:         0       0       0       0       0       0       0       0
  4632 ;;      Temps:          0       0       0       0       0       0       0       0
  4633 ;;      Totals:         0       0       0       0       0       0       0       0
  4634 ;;Total ram usage:        0 bytes
  4635 ;; Hardware stack levels used:    1
  4636 ;; Hardware stack levels required when called:    4
  4637 ;; This function calls:
  4638 ;;		Nothing
  4639 ;; This function is called by:
  4640 ;;		_SYSTEM_Initialize
  4641 ;; This function uses a non-reentrant model
  4642 ;;
  4643                           
  4644                           
  4645                           ;psect for function _PMD_Initialize
  4646  03A3                     _PMD_Initialize:
  4647  03A3                     l1302:	
  4648                           ;incstack = 0
  4649                           ; Regs used in _PMD_Initialize: [status,2]
  4650                           
  4651                           
  4652                           ;mcc_generated_files/mcc.c: 76:     PMD0 = 0x00;
  4653  03A3  002F               	movlb	15	; select bank15
  4654  03A4  0196               	clrf	22	;volatile
  4655                           
  4656                           ;mcc_generated_files/mcc.c: 78:     PMD1 = 0x00;
  4657  03A5  0197               	clrf	23	;volatile
  4658                           
  4659                           ;mcc_generated_files/mcc.c: 80:     PMD2 = 0x00;
  4660  03A6  0198               	clrf	24	;volatile
  4661                           
  4662                           ;mcc_generated_files/mcc.c: 82:     PMD3 = 0x00;
  4663  03A7  0199               	clrf	25	;volatile
  4664                           
  4665                           ;mcc_generated_files/mcc.c: 84:     PMD4 = 0x00;
  4666  03A8  019A               	clrf	26	;volatile
  4667                           
  4668                           ;mcc_generated_files/mcc.c: 86:     PMD5 = 0x00;
  4669  03A9  019B               	clrf	27	;volatile
  4670  03AA                     l169:
  4671  03AA  0008               	return
  4672  03AB                     __end_of_PMD_Initialize:
  4673                           
  4674                           	psect	text5
  4675  02F0                     __ptext5:	
  4676 ;; *************** function _PIN_MANAGER_Initialize *****************
  4677 ;; Defined at:
  4678 ;;		line 55 in file "mcc_generated_files/pin_manager.c"
  4679 ;; Parameters:    Size  Location     Type
  4680 ;;		None
  4681 ;; Auto vars:     Size  Location     Type
  4682 ;;		None
  4683 ;; Return value:  Size  Location     Type
  4684 ;;                  1    wreg      void 
  4685 ;; Registers used:
  4686 ;;		wreg, status,2
  4687 ;; Tracked objects:
  4688 ;;		On entry : 0/0
  4689 ;;		On exit  : 0/0
  4690 ;;		Unchanged: 0/0
  4691 ;; Data sizes:     COMMON   BANK0   BANK1   BANK2   BANK3   BANK4   BANK5   BANK6
  4692 ;;      Params:         0       0       0       0       0       0       0       0
  4693 ;;      Locals:         0       0       0       0       0       0       0       0
  4694 ;;      Temps:          0       0       0       0       0       0       0       0
  4695 ;;      Totals:         0       0       0       0       0       0       0       0
  4696 ;;Total ram usage:        0 bytes
  4697 ;; Hardware stack levels used:    1
  4698 ;; Hardware stack levels required when called:    4
  4699 ;; This function calls:
  4700 ;;		Nothing
  4701 ;; This function is called by:
  4702 ;;		_SYSTEM_Initialize
  4703 ;; This function uses a non-reentrant model
  4704 ;;
  4705                           
  4706                           
  4707                           ;psect for function _PIN_MANAGER_Initialize
  4708  02F0                     _PIN_MANAGER_Initialize:
  4709  02F0                     l1304:	
  4710                           ;incstack = 0
  4711                           ; Regs used in _PIN_MANAGER_Initialize: [wreg+status,2]
  4712                           
  4713                           
  4714                           ;mcc_generated_files/pin_manager.c: 60:     LATA = 0x00;
  4715  02F0  0020               	movlb	0	; select bank0
  4716  02F1  0196               	clrf	22	;volatile
  4717                           
  4718                           ;mcc_generated_files/pin_manager.c: 61:     LATB = 0x00;
  4719  02F2  0197               	clrf	23	;volatile
  4720                           
  4721                           ;mcc_generated_files/pin_manager.c: 62:     LATC = 0x00;
  4722  02F3  0198               	clrf	24	;volatile
  4723  02F4                     l1306:
  4724                           
  4725                           ;mcc_generated_files/pin_manager.c: 67:     TRISA = 0xE5;
  4726  02F4  30E5               	movlw	229
  4727  02F5  0091               	movwf	17	;volatile
  4728  02F6                     l1308:
  4729                           
  4730                           ;mcc_generated_files/pin_manager.c: 68:     TRISB = 0xFF;
  4731  02F6  30FF               	movlw	255
  4732  02F7  0092               	movwf	18	;volatile
  4733  02F8                     l1310:
  4734                           
  4735                           ;mcc_generated_files/pin_manager.c: 69:     TRISC = 0xBF;
  4736  02F8  30BF               	movlw	191
  4737  02F9  0093               	movwf	19	;volatile
  4738  02FA                     l1312:
  4739                           
  4740                           ;mcc_generated_files/pin_manager.c: 74:     ANSELC = 0x3F;
  4741  02FA  303F               	movlw	63
  4742  02FB  003E               	movlb	30	; select bank30
  4743  02FC  00CE               	movwf	78	;volatile
  4744  02FD                     l1314:
  4745                           
  4746                           ;mcc_generated_files/pin_manager.c: 75:     ANSELB = 0xFF;
  4747  02FD  30FF               	movlw	255
  4748  02FE  00C3               	movwf	67	;volatile
  4749  02FF                     l1316:
  4750                           
  4751                           ;mcc_generated_files/pin_manager.c: 76:     ANSELA = 0xFD;
  4752  02FF  30FD               	movlw	253
  4753  0300  00B8               	movwf	56	;volatile
  4754                           
  4755                           ;mcc_generated_files/pin_manager.c: 81:     WPUE = 0x00;
  4756  0301  01E5               	clrf	101	;volatile
  4757                           
  4758                           ;mcc_generated_files/pin_manager.c: 82:     WPUB = 0x00;
  4759  0302  01C4               	clrf	68	;volatile
  4760                           
  4761                           ;mcc_generated_files/pin_manager.c: 83:     WPUA = 0x00;
  4762  0303  01B9               	clrf	57	;volatile
  4763                           
  4764                           ;mcc_generated_files/pin_manager.c: 84:     WPUC = 0x00;
  4765  0304  01CF               	clrf	79	;volatile
  4766                           
  4767                           ;mcc_generated_files/pin_manager.c: 89:     ODCONA = 0x00;
  4768  0305  01BA               	clrf	58	;volatile
  4769                           
  4770                           ;mcc_generated_files/pin_manager.c: 90:     ODCONB = 0x00;
  4771  0306  01C5               	clrf	69	;volatile
  4772                           
  4773                           ;mcc_generated_files/pin_manager.c: 91:     ODCONC = 0x00;
  4774  0307  01D0               	clrf	80	;volatile
  4775  0308                     l1318:
  4776                           
  4777                           ;mcc_generated_files/pin_manager.c: 96:     SLRCONA = 0xFF;
  4778  0308  30FF               	movlw	255
  4779  0309  00BB               	movwf	59	;volatile
  4780  030A                     l1320:
  4781                           
  4782                           ;mcc_generated_files/pin_manager.c: 97:     SLRCONB = 0xFF;
  4783  030A  30FF               	movlw	255
  4784  030B  00C6               	movwf	70	;volatile
  4785  030C                     l1322:
  4786                           
  4787                           ;mcc_generated_files/pin_manager.c: 98:     SLRCONC = 0xFF;
  4788  030C  30FF               	movlw	255
  4789  030D  00D1               	movwf	81	;volatile
  4790  030E                     l1324:
  4791                           
  4792                           ;mcc_generated_files/pin_manager.c: 103:     INLVLA = 0xFF;
  4793  030E  30FF               	movlw	255
  4794  030F  00BC               	movwf	60	;volatile
  4795  0310                     l1326:
  4796                           
  4797                           ;mcc_generated_files/pin_manager.c: 104:     INLVLB = 0xFF;
  4798  0310  30FF               	movlw	255
  4799  0311  00C7               	movwf	71	;volatile
  4800  0312                     l1328:
  4801                           
  4802                           ;mcc_generated_files/pin_manager.c: 105:     INLVLC = 0xFF;
  4803  0312  30FF               	movlw	255
  4804  0313  00D2               	movwf	82	;volatile
  4805  0314                     l1330:
  4806                           
  4807                           ;mcc_generated_files/pin_manager.c: 106:     INLVLE = 0x08;
  4808  0314  3008               	movlw	8
  4809  0315  00E8               	movwf	104	;volatile
  4810  0316                     l1332:
  4811                           
  4812                           ;mcc_generated_files/pin_manager.c: 111:     RXPPS = 0x17;
  4813  0316  3017               	movlw	23
  4814  0317  003D               	movlb	29	; select bank29
  4815  0318  00CB               	movwf	75	;volatile
  4816  0319                     l1334:
  4817                           
  4818                           ;mcc_generated_files/pin_manager.c: 112:     RC6PPS = 0x10;
  4819  0319  3010               	movlw	16
  4820  031A  003E               	movlb	30	; select bank30
  4821  031B  00A6               	movwf	38	;volatile
  4822  031C                     l222:
  4823  031C  0008               	return
  4824  031D                     __end_of_PIN_MANAGER_Initialize:
  4825                           
  4826                           	psect	text6
  4827  0392                     __ptext6:	
  4828 ;; *************** function _OSCILLATOR_Initialize *****************
  4829 ;; Defined at:
  4830 ;;		line 59 in file "mcc_generated_files/mcc.c"
  4831 ;; Parameters:    Size  Location     Type
  4832 ;;		None
  4833 ;; Auto vars:     Size  Location     Type
  4834 ;;		None
  4835 ;; Return value:  Size  Location     Type
  4836 ;;                  1    wreg      void 
  4837 ;; Registers used:
  4838 ;;		wreg, status,2
  4839 ;; Tracked objects:
  4840 ;;		On entry : 0/0
  4841 ;;		On exit  : 0/0
  4842 ;;		Unchanged: 0/0
  4843 ;; Data sizes:     COMMON   BANK0   BANK1   BANK2   BANK3   BANK4   BANK5   BANK6
  4844 ;;      Params:         0       0       0       0       0       0       0       0
  4845 ;;      Locals:         0       0       0       0       0       0       0       0
  4846 ;;      Temps:          0       0       0       0       0       0       0       0
  4847 ;;      Totals:         0       0       0       0       0       0       0       0
  4848 ;;Total ram usage:        0 bytes
  4849 ;; Hardware stack levels used:    1
  4850 ;; Hardware stack levels required when called:    4
  4851 ;; This function calls:
  4852 ;;		Nothing
  4853 ;; This function is called by:
  4854 ;;		_SYSTEM_Initialize
  4855 ;; This function uses a non-reentrant model
  4856 ;;
  4857                           
  4858                           
  4859                           ;psect for function _OSCILLATOR_Initialize
  4860  0392                     _OSCILLATOR_Initialize:
  4861  0392                     l1336:	
  4862                           ;incstack = 0
  4863                           ; Regs used in _OSCILLATOR_Initialize: [wreg+status,2]
  4864                           
  4865                           
  4866                           ;mcc_generated_files/mcc.c: 62:     OSCCON1 = 0x62;
  4867  0392  3062               	movlw	98
  4868  0393  0031               	movlb	17	; select bank17
  4869  0394  008D               	movwf	13	;volatile
  4870  0395                     l1338:
  4871                           
  4872                           ;mcc_generated_files/mcc.c: 64:     OSCCON3 = 0x00;
  4873  0395  018F               	clrf	15	;volatile
  4874  0396                     l1340:
  4875                           
  4876                           ;mcc_generated_files/mcc.c: 66:     OSCEN = 0x00;
  4877  0396  0191               	clrf	17	;volatile
  4878                           
  4879                           ;mcc_generated_files/mcc.c: 68:     OSCFRQ = 0x02;
  4880  0397  3002               	movlw	2
  4881  0398  0093               	movwf	19	;volatile
  4882  0399                     l1342:
  4883                           
  4884                           ;mcc_generated_files/mcc.c: 70:     OSCTUNE = 0x00;
  4885  0399  0192               	clrf	18	;volatile
  4886  039A                     l166:
  4887  039A  0008               	return
  4888  039B                     __end_of_OSCILLATOR_Initialize:
  4889                           
  4890                           	psect	text7
  4891  02C0                     __ptext7:	
  4892 ;; *************** function _EUSART_Initialize *****************
  4893 ;; Defined at:
  4894 ;;		line 83 in file "mcc_generated_files/eusart.c"
  4895 ;; Parameters:    Size  Location     Type
  4896 ;;		None
  4897 ;; Auto vars:     Size  Location     Type
  4898 ;;		None
  4899 ;; Return value:  Size  Location     Type
  4900 ;;                  1    wreg      void 
  4901 ;; Registers used:
  4902 ;;		wreg, status,2, status,0, pclath, cstack
  4903 ;; Tracked objects:
  4904 ;;		On entry : 0/0
  4905 ;;		On exit  : 0/0
  4906 ;;		Unchanged: 0/0
  4907 ;; Data sizes:     COMMON   BANK0   BANK1   BANK2   BANK3   BANK4   BANK5   BANK6
  4908 ;;      Params:         0       0       0       0       0       0       0       0
  4909 ;;      Locals:         0       0       0       0       0       0       0       0
  4910 ;;      Temps:          0       0       0       0       0       0       0       0
  4911 ;;      Totals:         0       0       0       0       0       0       0       0
  4912 ;;Total ram usage:        0 bytes
  4913 ;; Hardware stack levels used:    1
  4914 ;; Hardware stack levels required when called:    5
  4915 ;; This function calls:
  4916 ;;		_EUSART_SetErrorHandler
  4917 ;;		_EUSART_SetFramingErrorHandler
  4918 ;;		_EUSART_SetOverrunErrorHandler
  4919 ;;		_EUSART_SetRxInterruptHandler
  4920 ;; This function is called by:
  4921 ;;		_SYSTEM_Initialize
  4922 ;; This function uses a non-reentrant model
  4923 ;;
  4924                           
  4925                           
  4926                           ;psect for function _EUSART_Initialize
  4927  02C0                     _EUSART_Initialize:
  4928  02C0                     l1276:	
  4929                           ;incstack = 0
  4930                           ; Regs used in _EUSART_Initialize: [wreg+status,2+status,0+pclath+cstack]
  4931                           
  4932                           
  4933                           ;mcc_generated_files/eusart.c: 86:     PIE3bits.RCIE = 0;
  4934  02C0  002E               	movlb	14	; select bank14
  4935  02C1  1299               	bcf	25,5	;volatile
  4936  02C2                     l1278:
  4937                           
  4938                           ;mcc_generated_files/eusart.c: 87:     EUSART_SetRxInterruptHandler(EUSART_Receive_ISR);
  4939  02C2  3087               	movlw	low _EUSART_Receive_ISR
  4940  02C3  00F3               	movwf	EUSART_SetRxInterruptHandler@interruptHandler
  4941  02C4  3002               	movlw	high _EUSART_Receive_ISR
  4942  02C5  00F4               	movwf	EUSART_SetRxInterruptHandler@interruptHandler+1
  4943  02C6  3183  23B2  3182   	fcall	_EUSART_SetRxInterruptHandler
  4944  02C9                     l1280:
  4945                           
  4946                           ;mcc_generated_files/eusart.c: 91:     BAUD1CON = 0x08;
  4947  02C9  3008               	movlw	8
  4948  02CA  0022               	movlb	2	; select bank2
  4949  02CB  009F               	movwf	31	;volatile
  4950  02CC                     l1282:
  4951                           
  4952                           ;mcc_generated_files/eusart.c: 94:     RC1STA = 0x90;
  4953  02CC  3090               	movlw	144
  4954  02CD  009D               	movwf	29	;volatile
  4955  02CE                     l1284:
  4956                           
  4957                           ;mcc_generated_files/eusart.c: 97:     TX1STA = 0x24;
  4958  02CE  3024               	movlw	36
  4959  02CF  009E               	movwf	30	;volatile
  4960  02D0                     l1286:
  4961                           
  4962                           ;mcc_generated_files/eusart.c: 100:     SP1BRGL = 0x19;
  4963  02D0  3019               	movlw	25
  4964  02D1  009B               	movwf	27	;volatile
  4965  02D2                     l1288:
  4966                           
  4967                           ;mcc_generated_files/eusart.c: 103:     SP1BRGH = 0x00;
  4968  02D2  019C               	clrf	28	;volatile
  4969  02D3                     l1290:
  4970                           
  4971                           ;mcc_generated_files/eusart.c: 106:     EUSART_SetFramingErrorHandler(EUSART_DefaultFram
      +                          ingErrorHandler);
  4972  02D3  30D2               	movlw	low _EUSART_DefaultFramingErrorHandler
  4973  02D4  00F3               	movwf	EUSART_SetFramingErrorHandler@interruptHandler
  4974  02D5  3003               	movlw	high _EUSART_DefaultFramingErrorHandler
  4975  02D6  00F4               	movwf	EUSART_SetFramingErrorHandler@interruptHandler+1
  4976  02D7  3183  23BE  3182   	fcall	_EUSART_SetFramingErrorHandler
  4977  02DA                     l1292:
  4978                           
  4979                           ;mcc_generated_files/eusart.c: 107:     EUSART_SetOverrunErrorHandler(EUSART_DefaultOver
      +                          runErrorHandler);
  4980  02DA  30CA               	movlw	low _EUSART_DefaultOverrunErrorHandler
  4981  02DB  00F3               	movwf	EUSART_SetOverrunErrorHandler@interruptHandler
  4982  02DC  3003               	movlw	high _EUSART_DefaultOverrunErrorHandler
  4983  02DD  00F4               	movwf	EUSART_SetOverrunErrorHandler@interruptHandler+1
  4984  02DE  3183  23B8  3182   	fcall	_EUSART_SetOverrunErrorHandler
  4985  02E1                     l1294:
  4986                           
  4987                           ;mcc_generated_files/eusart.c: 108:     EUSART_SetErrorHandler(EUSART_DefaultErrorHandle
      +                          r);
  4988  02E1  30CE               	movlw	low _EUSART_DefaultErrorHandler
  4989  02E2  00F3               	movwf	EUSART_SetErrorHandler@interruptHandler
  4990  02E3  3003               	movlw	high _EUSART_DefaultErrorHandler
  4991  02E4  00F4               	movwf	EUSART_SetErrorHandler@interruptHandler+1
  4992  02E5  3183  23C4  3182   	fcall	_EUSART_SetErrorHandler
  4993                           
  4994                           ;mcc_generated_files/eusart.c: 110:     eusartRxLastError.status = 0;
  4995  02E8  0020               	movlb	0	; select bank0
  4996  02E9  01DF               	clrf	_eusartRxLastError	;volatile
  4997                           
  4998                           ;mcc_generated_files/eusart.c: 113:     eusartRxHead = 0;
  4999  02EA  01FA               	clrf	_eusartRxHead	;volatile
  5000                           
  5001                           ;mcc_generated_files/eusart.c: 114:     eusartRxTail = 0;
  5002  02EB  01F9               	clrf	_eusartRxTail	;volatile
  5003                           
  5004                           ;mcc_generated_files/eusart.c: 115:     eusartRxCount = 0;
  5005  02EC  01F8               	clrf	_eusartRxCount	;volatile
  5006  02ED                     l1296:
  5007                           
  5008                           ;mcc_generated_files/eusart.c: 118:     PIE3bits.RCIE = 1;
  5009  02ED  002E               	movlb	14	; select bank14
  5010  02EE  1699               	bsf	25,5	;volatile
  5011  02EF                     l63:
  5012  02EF  0008               	return
  5013  02F0                     __end_of_EUSART_Initialize:
  5014                           
  5015                           	psect	text8
  5016  03B2                     __ptext8:	
  5017 ;; *************** function _EUSART_SetRxInterruptHandler *****************
  5018 ;; Defined at:
  5019 ;;		line 245 in file "mcc_generated_files/eusart.c"
  5020 ;; Parameters:    Size  Location     Type
  5021 ;;  interruptHan    2    3[COMMON] PTR FTN()void 
  5022 ;;		 -> EUSART_Receive_ISR(1), 
  5023 ;; Auto vars:     Size  Location     Type
  5024 ;;		None
  5025 ;; Return value:  Size  Location     Type
  5026 ;;                  1    wreg      void 
  5027 ;; Registers used:
  5028 ;;		wreg
  5029 ;; Tracked objects:
  5030 ;;		On entry : 0/0
  5031 ;;		On exit  : 0/0
  5032 ;;		Unchanged: 0/0
  5033 ;; Data sizes:     COMMON   BANK0   BANK1   BANK2   BANK3   BANK4   BANK5   BANK6
  5034 ;;      Params:         2       0       0       0       0       0       0       0
  5035 ;;      Locals:         0       0       0       0       0       0       0       0
  5036 ;;      Temps:          0       0       0       0       0       0       0       0
  5037 ;;      Totals:         2       0       0       0       0       0       0       0
  5038 ;;Total ram usage:        2 bytes
  5039 ;; Hardware stack levels used:    1
  5040 ;; Hardware stack levels required when called:    4
  5041 ;; This function calls:
  5042 ;;		Nothing
  5043 ;; This function is called by:
  5044 ;;		_EUSART_Initialize
  5045 ;; This function uses a non-reentrant model
  5046 ;;
  5047                           
  5048                           
  5049                           ;psect for function _EUSART_SetRxInterruptHandler
  5050  03B2                     _EUSART_SetRxInterruptHandler:
  5051  03B2                     l1256:	
  5052                           ;incstack = 0
  5053                           ; Regs used in _EUSART_SetRxInterruptHandler: [wreg]
  5054                           
  5055                           
  5056                           ;mcc_generated_files/eusart.c: 246:     EUSART_RxDefaultInterruptHandler = interruptHand
      +                          ler;
  5057  03B2  0874               	movf	EUSART_SetRxInterruptHandler@interruptHandler+1,w
  5058  03B3  0020               	movlb	0	; select bank0
  5059  03B4  00D3               	movwf	_EUSART_RxDefaultInterruptHandler+1
  5060  03B5  0873               	movf	EUSART_SetRxInterruptHandler@interruptHandler,w
  5061  03B6  00D2               	movwf	_EUSART_RxDefaultInterruptHandler
  5062  03B7                     l128:
  5063  03B7  0008               	return
  5064  03B8                     __end_of_EUSART_SetRxInterruptHandler:
  5065                           
  5066                           	psect	text9
  5067  03B8                     __ptext9:	
  5068 ;; *************** function _EUSART_SetOverrunErrorHandler *****************
  5069 ;; Defined at:
  5070 ;;		line 236 in file "mcc_generated_files/eusart.c"
  5071 ;; Parameters:    Size  Location     Type
  5072 ;;  interruptHan    2    3[COMMON] PTR FTN()void 
  5073 ;;		 -> EUSART_DefaultOverrunErrorHandler(1), 
  5074 ;; Auto vars:     Size  Location     Type
  5075 ;;		None
  5076 ;; Return value:  Size  Location     Type
  5077 ;;                  1    wreg      void 
  5078 ;; Registers used:
  5079 ;;		wreg
  5080 ;; Tracked objects:
  5081 ;;		On entry : 0/0
  5082 ;;		On exit  : 0/0
  5083 ;;		Unchanged: 0/0
  5084 ;; Data sizes:     COMMON   BANK0   BANK1   BANK2   BANK3   BANK4   BANK5   BANK6
  5085 ;;      Params:         2       0       0       0       0       0       0       0
  5086 ;;      Locals:         0       0       0       0       0       0       0       0
  5087 ;;      Temps:          0       0       0       0       0       0       0       0
  5088 ;;      Totals:         2       0       0       0       0       0       0       0
  5089 ;;Total ram usage:        2 bytes
  5090 ;; Hardware stack levels used:    1
  5091 ;; Hardware stack levels required when called:    4
  5092 ;; This function calls:
  5093 ;;		Nothing
  5094 ;; This function is called by:
  5095 ;;		_EUSART_Initialize
  5096 ;; This function uses a non-reentrant model
  5097 ;;
  5098                           
  5099                           
  5100                           ;psect for function _EUSART_SetOverrunErrorHandler
  5101  03B8                     _EUSART_SetOverrunErrorHandler:
  5102  03B8                     l1260:	
  5103                           ;incstack = 0
  5104                           ; Regs used in _EUSART_SetOverrunErrorHandler: [wreg]
  5105                           
  5106                           
  5107                           ;mcc_generated_files/eusart.c: 237:     EUSART_OverrunErrorHandler = interruptHandler;
  5108  03B8  0874               	movf	EUSART_SetOverrunErrorHandler@interruptHandler+1,w
  5109  03B9  0020               	movlb	0	; select bank0
  5110  03BA  00CF               	movwf	_EUSART_OverrunErrorHandler+1
  5111  03BB  0873               	movf	EUSART_SetOverrunErrorHandler@interruptHandler,w
  5112  03BC  00CE               	movwf	_EUSART_OverrunErrorHandler
  5113  03BD                     l122:
  5114  03BD  0008               	return
  5115  03BE                     __end_of_EUSART_SetOverrunErrorHandler:
  5116                           
  5117                           	psect	text10
  5118  03BE                     __ptext10:	
  5119 ;; *************** function _EUSART_SetFramingErrorHandler *****************
  5120 ;; Defined at:
  5121 ;;		line 232 in file "mcc_generated_files/eusart.c"
  5122 ;; Parameters:    Size  Location     Type
  5123 ;;  interruptHan    2    3[COMMON] PTR FTN()void 
  5124 ;;		 -> EUSART_DefaultFramingErrorHandler(1), 
  5125 ;; Auto vars:     Size  Location     Type
  5126 ;;		None
  5127 ;; Return value:  Size  Location     Type
  5128 ;;                  1    wreg      void 
  5129 ;; Registers used:
  5130 ;;		wreg
  5131 ;; Tracked objects:
  5132 ;;		On entry : 0/0
  5133 ;;		On exit  : 0/0
  5134 ;;		Unchanged: 0/0
  5135 ;; Data sizes:     COMMON   BANK0   BANK1   BANK2   BANK3   BANK4   BANK5   BANK6
  5136 ;;      Params:         2       0       0       0       0       0       0       0
  5137 ;;      Locals:         0       0       0       0       0       0       0       0
  5138 ;;      Temps:          0       0       0       0       0       0       0       0
  5139 ;;      Totals:         2       0       0       0       0       0       0       0
  5140 ;;Total ram usage:        2 bytes
  5141 ;; Hardware stack levels used:    1
  5142 ;; Hardware stack levels required when called:    4
  5143 ;; This function calls:
  5144 ;;		Nothing
  5145 ;; This function is called by:
  5146 ;;		_EUSART_Initialize
  5147 ;; This function uses a non-reentrant model
  5148 ;;
  5149                           
  5150                           
  5151                           ;psect for function _EUSART_SetFramingErrorHandler
  5152  03BE                     _EUSART_SetFramingErrorHandler:
  5153  03BE                     l1258:	
  5154                           ;incstack = 0
  5155                           ; Regs used in _EUSART_SetFramingErrorHandler: [wreg]
  5156                           
  5157                           
  5158                           ;mcc_generated_files/eusart.c: 233:     EUSART_FramingErrorHandler = interruptHandler;
  5159  03BE  0874               	movf	EUSART_SetFramingErrorHandler@interruptHandler+1,w
  5160  03BF  0020               	movlb	0	; select bank0
  5161  03C0  00D1               	movwf	_EUSART_FramingErrorHandler+1
  5162  03C1  0873               	movf	EUSART_SetFramingErrorHandler@interruptHandler,w
  5163  03C2  00D0               	movwf	_EUSART_FramingErrorHandler
  5164  03C3                     l119:
  5165  03C3  0008               	return
  5166  03C4                     __end_of_EUSART_SetFramingErrorHandler:
  5167                           
  5168                           	psect	text11
  5169  03C4                     __ptext11:	
  5170 ;; *************** function _EUSART_SetErrorHandler *****************
  5171 ;; Defined at:
  5172 ;;		line 240 in file "mcc_generated_files/eusart.c"
  5173 ;; Parameters:    Size  Location     Type
  5174 ;;  interruptHan    2    3[COMMON] PTR FTN()void 
  5175 ;;		 -> EUSART_DefaultErrorHandler(1), 
  5176 ;; Auto vars:     Size  Location     Type
  5177 ;;		None
  5178 ;; Return value:  Size  Location     Type
  5179 ;;                  1    wreg      void 
  5180 ;; Registers used:
  5181 ;;		wreg
  5182 ;; Tracked objects:
  5183 ;;		On entry : 0/0
  5184 ;;		On exit  : 0/0
  5185 ;;		Unchanged: 0/0
  5186 ;; Data sizes:     COMMON   BANK0   BANK1   BANK2   BANK3   BANK4   BANK5   BANK6
  5187 ;;      Params:         2       0       0       0       0       0       0       0
  5188 ;;      Locals:         0       0       0       0       0       0       0       0
  5189 ;;      Temps:          0       0       0       0       0       0       0       0
  5190 ;;      Totals:         2       0       0       0       0       0       0       0
  5191 ;;Total ram usage:        2 bytes
  5192 ;; Hardware stack levels used:    1
  5193 ;; Hardware stack levels required when called:    4
  5194 ;; This function calls:
  5195 ;;		Nothing
  5196 ;; This function is called by:
  5197 ;;		_EUSART_Initialize
  5198 ;; This function uses a non-reentrant model
  5199 ;;
  5200                           
  5201                           
  5202                           ;psect for function _EUSART_SetErrorHandler
  5203  03C4                     _EUSART_SetErrorHandler:
  5204  03C4                     l1262:	
  5205                           ;incstack = 0
  5206                           ; Regs used in _EUSART_SetErrorHandler: [wreg]
  5207                           
  5208                           
  5209                           ;mcc_generated_files/eusart.c: 241:     EUSART_ErrorHandler = interruptHandler;
  5210  03C4  0874               	movf	EUSART_SetErrorHandler@interruptHandler+1,w
  5211  03C5  0020               	movlb	0	; select bank0
  5212  03C6  00CD               	movwf	_EUSART_ErrorHandler+1
  5213  03C7  0873               	movf	EUSART_SetErrorHandler@interruptHandler,w
  5214  03C8  00CC               	movwf	_EUSART_ErrorHandler
  5215  03C9                     l125:
  5216  03C9  0008               	return
  5217  03CA                     __end_of_EUSART_SetErrorHandler:
  5218                           
  5219                           	psect	text12
  5220  0069                     __ptext12:	
  5221 ;; *************** function _Get_Voltage *****************
  5222 ;; Defined at:
  5223 ;;		line 129 in file "main.c"
  5224 ;; Parameters:    Size  Location     Type
  5225 ;;  k               2    3[BANK0 ] int 
  5226 ;; Auto vars:     Size  Location     Type
  5227 ;;		None
  5228 ;; Return value:  Size  Location     Type
  5229 ;;                  2    3[BANK0 ] unsigned int 
  5230 ;; Registers used:
  5231 ;;		wreg, fsr0l, fsr0h, fsr1l, fsr1h, status,2, status,0, pclath, cstack
  5232 ;; Tracked objects:
  5233 ;;		On entry : 0/0
  5234 ;;		On exit  : 0/0
  5235 ;;		Unchanged: 0/0
  5236 ;; Data sizes:     COMMON   BANK0   BANK1   BANK2   BANK3   BANK4   BANK5   BANK6
  5237 ;;      Params:         0       2       0       0       0       0       0       0
  5238 ;;      Locals:         0       0       0       0       0       0       0       0
  5239 ;;      Temps:          0      17       0       0       0       0       0       0
  5240 ;;      Totals:         0      19       0       0       0       0       0       0
  5241 ;;Total ram usage:       19 bytes
  5242 ;; Hardware stack levels used:    1
  5243 ;; Hardware stack levels required when called:    5
  5244 ;; This function calls:
  5245 ;;		___lwdiv
  5246 ;; This function is called by:
  5247 ;;		_main
  5248 ;; This function uses a non-reentrant model
  5249 ;;
  5250                           
  5251                           
  5252                           ;psect for function _Get_Voltage
  5253  0069                     _Get_Voltage:
  5254  0069                     l1562:	
  5255                           ;incstack = 0
  5256                           ; Regs used in _Get_Voltage: [wreg-fsr1h+status,2+status,0+pclath+cstack]
  5257                           
  5258                           
  5259                           ;main.c: 130:     Coulomb_Data.Voltage[k] = (Coulomb_Data.Voltage_H[k] << 8) + Coulomb_D
      +                          ata.Voltage_L[k];
  5260  0069  0020               	movlb	0	; select bank0
  5261  006A  0824               	movf	Get_Voltage@k+1,w
  5262  006B  00A6               	movwf	??_Get_Voltage+1
  5263  006C  0823               	movf	Get_Voltage@k,w
  5264  006D  00A5               	movwf	??_Get_Voltage
  5265  006E  35A5               	lslf	??_Get_Voltage,f
  5266  006F  0DA6               	rlf	??_Get_Voltage+1,f
  5267  0070  3068               	movlw	104
  5268  0071  00A7               	movwf	??_Get_Voltage+2
  5269  0072  3021               	movlw	33
  5270  0073  00A8               	movwf	??_Get_Voltage+3
  5271  0074  0825               	movf	??_Get_Voltage,w
  5272  0075  0727               	addwf	??_Get_Voltage+2,w
  5273  0076  0086               	movwf	6
  5274  0077  0826               	movf	??_Get_Voltage+1,w
  5275  0078  3D28               	addwfc	??_Get_Voltage+3,w
  5276  0079  0087               	movwf	7
  5277  007A  0824               	movf	Get_Voltage@k+1,w
  5278  007B  00AA               	movwf	??_Get_Voltage+5
  5279  007C  0823               	movf	Get_Voltage@k,w
  5280  007D  00A9               	movwf	??_Get_Voltage+4
  5281  007E  35A9               	lslf	??_Get_Voltage+4,f
  5282  007F  0DAA               	rlf	??_Get_Voltage+5,f
  5283  0080  3028               	movlw	40
  5284  0081  00AB               	movwf	??_Get_Voltage+6
  5285  0082  3021               	movlw	33
  5286  0083  00AC               	movwf	??_Get_Voltage+7
  5287  0084  0829               	movf	??_Get_Voltage+4,w
  5288  0085  072B               	addwf	??_Get_Voltage+6,w
  5289  0086  0084               	movwf	4
  5290  0087  082A               	movf	??_Get_Voltage+5,w
  5291  0088  3D2C               	addwfc	??_Get_Voltage+7,w
  5292  0089  0085               	movwf	5
  5293  008A  3F00               	moviw [0]fsr0
  5294  008B  00AD               	movwf	??_Get_Voltage+8
  5295  008C  3F01               	moviw [1]fsr0
  5296  008D  00AE               	movwf	??_Get_Voltage+9
  5297  008E  082D               	movf	??_Get_Voltage+8,w
  5298  008F  00AE               	movwf	??_Get_Voltage+9
  5299  0090  01AD               	clrf	??_Get_Voltage+8
  5300  0091  3F40               	moviw [0]fsr1
  5301  0092  072D               	addwf	??_Get_Voltage+8,w
  5302  0093  00B0               	movwf	??_Get_Voltage+11
  5303  0094  3F41               	moviw [1]fsr1
  5304  0095  3D2E               	addwfc	??_Get_Voltage+9,w
  5305  0096  00B1               	movwf	??_Get_Voltage+12
  5306  0097  0824               	movf	Get_Voltage@k+1,w
  5307  0098  00B3               	movwf	??_Get_Voltage+14
  5308  0099  0823               	movf	Get_Voltage@k,w
  5309  009A  00B2               	movwf	??_Get_Voltage+13
  5310  009B  35B2               	lslf	??_Get_Voltage+13,f
  5311  009C  0DB3               	rlf	??_Get_Voltage+14,f
  5312  009D  30B0               	movlw	176
  5313  009E  00B4               	movwf	??_Get_Voltage+15
  5314  009F  3021               	movlw	33
  5315  00A0  00B5               	movwf	??_Get_Voltage+16
  5316  00A1  0832               	movf	??_Get_Voltage+13,w
  5317  00A2  0734               	addwf	??_Get_Voltage+15,w
  5318  00A3  0086               	movwf	6
  5319  00A4  0833               	movf	??_Get_Voltage+14,w
  5320  00A5  3D35               	addwfc	??_Get_Voltage+16,w
  5321  00A6  0087               	movwf	7
  5322  00A7  0830               	movf	??_Get_Voltage+11,w
  5323  00A8  3FC0               	movwi [0]fsr1
  5324  00A9  0831               	movf	??_Get_Voltage+12,w
  5325  00AA  3FC1               	movwi [1]fsr1
  5326  00AB                     l1564:
  5327                           
  5328                           ;main.c: 131:     if(Coulomb_Data.Voltage_Point==4) Coulomb_Data.Voltage[k] = Coulomb_Da
      +                          ta.Voltage[k]/10000;
  5329  00AB  30AC               	movlw	172
  5330  00AC  0086               	movwf	6
  5331  00AD  3021               	movlw	33
  5332  00AE  0087               	movwf	7
  5333  00AF  0801               	movf	1,w
  5334  00B0  390F               	andlw	15
  5335  00B1  3A04               	xorlw	4
  5336  00B2  1D03               	skipz
  5337  00B3  28B5               	goto	u741
  5338  00B4  28B6               	goto	u740
  5339  00B5                     u741:
  5340  00B5  28E7               	goto	l1568
  5341  00B6                     u740:
  5342  00B6                     l1566:
  5343  00B6  3010               	movlw	16
  5344  00B7  00F3               	movwf	___lwdiv@divisor
  5345  00B8  3027               	movlw	39
  5346  00B9  00F4               	movwf	___lwdiv@divisor+1
  5347  00BA  0824               	movf	Get_Voltage@k+1,w
  5348  00BB  00A6               	movwf	??_Get_Voltage+1
  5349  00BC  0823               	movf	Get_Voltage@k,w
  5350  00BD  00A5               	movwf	??_Get_Voltage
  5351  00BE  35A5               	lslf	??_Get_Voltage,f
  5352  00BF  0DA6               	rlf	??_Get_Voltage+1,f
  5353  00C0  30B0               	movlw	176
  5354  00C1  00A7               	movwf	??_Get_Voltage+2
  5355  00C2  3021               	movlw	33
  5356  00C3  00A8               	movwf	??_Get_Voltage+3
  5357  00C4  0825               	movf	??_Get_Voltage,w
  5358  00C5  0727               	addwf	??_Get_Voltage+2,w
  5359  00C6  0086               	movwf	6
  5360  00C7  0826               	movf	??_Get_Voltage+1,w
  5361  00C8  3D28               	addwfc	??_Get_Voltage+3,w
  5362  00C9  0087               	movwf	7
  5363  00CA  3F40               	moviw [0]fsr1
  5364  00CB  00F5               	movwf	___lwdiv@dividend
  5365  00CC  3F41               	moviw [1]fsr1
  5366  00CD  00F6               	movwf	___lwdiv@dividend+1
  5367  00CE  3182  224A  3180   	fcall	___lwdiv
  5368  00D1  0020               	movlb	0	; select bank0
  5369  00D2  0824               	movf	Get_Voltage@k+1,w
  5370  00D3  00AA               	movwf	??_Get_Voltage+5
  5371  00D4  0823               	movf	Get_Voltage@k,w
  5372  00D5  00A9               	movwf	??_Get_Voltage+4
  5373  00D6  35A9               	lslf	??_Get_Voltage+4,f
  5374  00D7  0DAA               	rlf	??_Get_Voltage+5,f
  5375  00D8  30B0               	movlw	176
  5376  00D9  00AB               	movwf	??_Get_Voltage+6
  5377  00DA  3021               	movlw	33
  5378  00DB  00AC               	movwf	??_Get_Voltage+7
  5379  00DC  0829               	movf	??_Get_Voltage+4,w
  5380  00DD  072B               	addwf	??_Get_Voltage+6,w
  5381  00DE  0086               	movwf	6
  5382  00DF  082A               	movf	??_Get_Voltage+5,w
  5383  00E0  3D2C               	addwfc	??_Get_Voltage+7,w
  5384  00E1  0087               	movwf	7
  5385  00E2  0873               	movf	?___lwdiv,w
  5386  00E3  3FC0               	movwi [0]fsr1
  5387  00E4  0874               	movf	?___lwdiv+1,w
  5388  00E5  3FC1               	movwi [1]fsr1
  5389  00E6  299B               	goto	l338
  5390  00E7                     l1568:
  5391  00E7  30AC               	movlw	172
  5392  00E8  0086               	movwf	6
  5393  00E9  3021               	movlw	33
  5394  00EA  0087               	movwf	7
  5395  00EB  0801               	movf	1,w
  5396  00EC  390F               	andlw	15
  5397  00ED  3A03               	xorlw	3
  5398  00EE  1D03               	skipz
  5399  00EF  28F1               	goto	u751
  5400  00F0  28F2               	goto	u750
  5401  00F1                     u751:
  5402  00F1  2923               	goto	l1572
  5403  00F2                     u750:
  5404  00F2                     l1570:
  5405  00F2  30E8               	movlw	232
  5406  00F3  00F3               	movwf	___lwdiv@divisor
  5407  00F4  3003               	movlw	3
  5408  00F5  00F4               	movwf	___lwdiv@divisor+1
  5409  00F6  0824               	movf	Get_Voltage@k+1,w
  5410  00F7  00A6               	movwf	??_Get_Voltage+1
  5411  00F8  0823               	movf	Get_Voltage@k,w
  5412  00F9  00A5               	movwf	??_Get_Voltage
  5413  00FA  35A5               	lslf	??_Get_Voltage,f
  5414  00FB  0DA6               	rlf	??_Get_Voltage+1,f
  5415  00FC  30B0               	movlw	176
  5416  00FD  00A7               	movwf	??_Get_Voltage+2
  5417  00FE  3021               	movlw	33
  5418  00FF  00A8               	movwf	??_Get_Voltage+3
  5419  0100  0825               	movf	??_Get_Voltage,w
  5420  0101  0727               	addwf	??_Get_Voltage+2,w
  5421  0102  0086               	movwf	6
  5422  0103  0826               	movf	??_Get_Voltage+1,w
  5423  0104  3D28               	addwfc	??_Get_Voltage+3,w
  5424  0105  0087               	movwf	7
  5425  0106  3F40               	moviw [0]fsr1
  5426  0107  00F5               	movwf	___lwdiv@dividend
  5427  0108  3F41               	moviw [1]fsr1
  5428  0109  00F6               	movwf	___lwdiv@dividend+1
  5429  010A  3182  224A  3180   	fcall	___lwdiv
  5430  010D  0020               	movlb	0	; select bank0
  5431  010E  0824               	movf	Get_Voltage@k+1,w
  5432  010F  00AA               	movwf	??_Get_Voltage+5
  5433  0110  0823               	movf	Get_Voltage@k,w
  5434  0111  00A9               	movwf	??_Get_Voltage+4
  5435  0112  35A9               	lslf	??_Get_Voltage+4,f
  5436  0113  0DAA               	rlf	??_Get_Voltage+5,f
  5437  0114  30B0               	movlw	176
  5438  0115  00AB               	movwf	??_Get_Voltage+6
  5439  0116  3021               	movlw	33
  5440  0117  00AC               	movwf	??_Get_Voltage+7
  5441  0118  0829               	movf	??_Get_Voltage+4,w
  5442  0119  072B               	addwf	??_Get_Voltage+6,w
  5443  011A  0086               	movwf	6
  5444  011B  082A               	movf	??_Get_Voltage+5,w
  5445  011C  3D2C               	addwfc	??_Get_Voltage+7,w
  5446  011D  0087               	movwf	7
  5447  011E  0873               	movf	?___lwdiv,w
  5448  011F  3FC0               	movwi [0]fsr1
  5449  0120  0874               	movf	?___lwdiv+1,w
  5450  0121  3FC1               	movwi [1]fsr1
  5451  0122  299B               	goto	l338
  5452  0123                     l1572:
  5453  0123  30AC               	movlw	172
  5454  0124  0086               	movwf	6
  5455  0125  3021               	movlw	33
  5456  0126  0087               	movwf	7
  5457  0127  0801               	movf	1,w
  5458  0128  390F               	andlw	15
  5459  0129  3A02               	xorlw	2
  5460  012A  1D03               	skipz
  5461  012B  292D               	goto	u761
  5462  012C  292E               	goto	u760
  5463  012D                     u761:
  5464  012D  295F               	goto	l1576
  5465  012E                     u760:
  5466  012E                     l1574:
  5467  012E  3064               	movlw	100
  5468  012F  00F3               	movwf	___lwdiv@divisor
  5469  0130  3000               	movlw	0
  5470  0131  00F4               	movwf	___lwdiv@divisor+1
  5471  0132  0824               	movf	Get_Voltage@k+1,w
  5472  0133  00A6               	movwf	??_Get_Voltage+1
  5473  0134  0823               	movf	Get_Voltage@k,w
  5474  0135  00A5               	movwf	??_Get_Voltage
  5475  0136  35A5               	lslf	??_Get_Voltage,f
  5476  0137  0DA6               	rlf	??_Get_Voltage+1,f
  5477  0138  30B0               	movlw	176
  5478  0139  00A7               	movwf	??_Get_Voltage+2
  5479  013A  3021               	movlw	33
  5480  013B  00A8               	movwf	??_Get_Voltage+3
  5481  013C  0825               	movf	??_Get_Voltage,w
  5482  013D  0727               	addwf	??_Get_Voltage+2,w
  5483  013E  0086               	movwf	6
  5484  013F  0826               	movf	??_Get_Voltage+1,w
  5485  0140  3D28               	addwfc	??_Get_Voltage+3,w
  5486  0141  0087               	movwf	7
  5487  0142  3F40               	moviw [0]fsr1
  5488  0143  00F5               	movwf	___lwdiv@dividend
  5489  0144  3F41               	moviw [1]fsr1
  5490  0145  00F6               	movwf	___lwdiv@dividend+1
  5491  0146  3182  224A  3180   	fcall	___lwdiv
  5492  0149  0020               	movlb	0	; select bank0
  5493  014A  0824               	movf	Get_Voltage@k+1,w
  5494  014B  00AA               	movwf	??_Get_Voltage+5
  5495  014C  0823               	movf	Get_Voltage@k,w
  5496  014D  00A9               	movwf	??_Get_Voltage+4
  5497  014E  35A9               	lslf	??_Get_Voltage+4,f
  5498  014F  0DAA               	rlf	??_Get_Voltage+5,f
  5499  0150  30B0               	movlw	176
  5500  0151  00AB               	movwf	??_Get_Voltage+6
  5501  0152  3021               	movlw	33
  5502  0153  00AC               	movwf	??_Get_Voltage+7
  5503  0154  0829               	movf	??_Get_Voltage+4,w
  5504  0155  072B               	addwf	??_Get_Voltage+6,w
  5505  0156  0086               	movwf	6
  5506  0157  082A               	movf	??_Get_Voltage+5,w
  5507  0158  3D2C               	addwfc	??_Get_Voltage+7,w
  5508  0159  0087               	movwf	7
  5509  015A  0873               	movf	?___lwdiv,w
  5510  015B  3FC0               	movwi [0]fsr1
  5511  015C  0874               	movf	?___lwdiv+1,w
  5512  015D  3FC1               	movwi [1]fsr1
  5513  015E  299B               	goto	l338
  5514  015F                     l1576:
  5515  015F  30AC               	movlw	172
  5516  0160  0086               	movwf	6
  5517  0161  3021               	movlw	33
  5518  0162  0087               	movwf	7
  5519  0163  0801               	movf	1,w
  5520  0164  390F               	andlw	15
  5521  0165  3A01               	xorlw	1
  5522  0166  1D03               	skipz
  5523  0167  2969               	goto	u771
  5524  0168  296A               	goto	u770
  5525  0169                     u771:
  5526  0169  299B               	goto	l336
  5527  016A                     u770:
  5528  016A                     l1578:
  5529  016A  300A               	movlw	10
  5530  016B  00F3               	movwf	___lwdiv@divisor
  5531  016C  3000               	movlw	0
  5532  016D  00F4               	movwf	___lwdiv@divisor+1
  5533  016E  0824               	movf	Get_Voltage@k+1,w
  5534  016F  00A6               	movwf	??_Get_Voltage+1
  5535  0170  0823               	movf	Get_Voltage@k,w
  5536  0171  00A5               	movwf	??_Get_Voltage
  5537  0172  35A5               	lslf	??_Get_Voltage,f
  5538  0173  0DA6               	rlf	??_Get_Voltage+1,f
  5539  0174  30B0               	movlw	176
  5540  0175  00A7               	movwf	??_Get_Voltage+2
  5541  0176  3021               	movlw	33
  5542  0177  00A8               	movwf	??_Get_Voltage+3
  5543  0178  0825               	movf	??_Get_Voltage,w
  5544  0179  0727               	addwf	??_Get_Voltage+2,w
  5545  017A  0086               	movwf	6
  5546  017B  0826               	movf	??_Get_Voltage+1,w
  5547  017C  3D28               	addwfc	??_Get_Voltage+3,w
  5548  017D  0087               	movwf	7
  5549  017E  3F40               	moviw [0]fsr1
  5550  017F  00F5               	movwf	___lwdiv@dividend
  5551  0180  3F41               	moviw [1]fsr1
  5552  0181  00F6               	movwf	___lwdiv@dividend+1
  5553  0182  3182  224A  3180   	fcall	___lwdiv
  5554  0185  0020               	movlb	0	; select bank0
  5555  0186  0824               	movf	Get_Voltage@k+1,w
  5556  0187  00AA               	movwf	??_Get_Voltage+5
  5557  0188  0823               	movf	Get_Voltage@k,w
  5558  0189  00A9               	movwf	??_Get_Voltage+4
  5559  018A  35A9               	lslf	??_Get_Voltage+4,f
  5560  018B  0DAA               	rlf	??_Get_Voltage+5,f
  5561  018C  30B0               	movlw	176
  5562  018D  00AB               	movwf	??_Get_Voltage+6
  5563  018E  3021               	movlw	33
  5564  018F  00AC               	movwf	??_Get_Voltage+7
  5565  0190  0829               	movf	??_Get_Voltage+4,w
  5566  0191  072B               	addwf	??_Get_Voltage+6,w
  5567  0192  0086               	movwf	6
  5568  0193  082A               	movf	??_Get_Voltage+5,w
  5569  0194  3D2C               	addwfc	??_Get_Voltage+7,w
  5570  0195  0087               	movwf	7
  5571  0196  0873               	movf	?___lwdiv,w
  5572  0197  3FC0               	movwi [0]fsr1
  5573  0198  0874               	movf	?___lwdiv+1,w
  5574  0199  3FC1               	movwi [1]fsr1
  5575  019A  299B               	goto	l338
  5576  019B                     l336:
  5577  019B                     l338:
  5578  019B  0008               	return
  5579  019C                     __end_of_Get_Voltage:
  5580                           
  5581                           	psect	text13
  5582  024A                     __ptext13:	
  5583 ;; *************** function ___lwdiv *****************
  5584 ;; Defined at:
  5585 ;;		line 5 in file "C:\Program Files\Microchip\xc8\v2.20\pic\sources\c99\common\lwdiv.c"
  5586 ;; Parameters:    Size  Location     Type
  5587 ;;  divisor         2    3[COMMON] unsigned int 
  5588 ;;  dividend        2    5[COMMON] unsigned int 
  5589 ;; Auto vars:     Size  Location     Type
  5590 ;;  quotient        2    1[BANK0 ] unsigned int 
  5591 ;;  counter         1    0[BANK0 ] unsigned char 
  5592 ;; Return value:  Size  Location     Type
  5593 ;;                  2    3[COMMON] unsigned int 
  5594 ;; Registers used:
  5595 ;;		wreg, status,2, status,0
  5596 ;; Tracked objects:
  5597 ;;		On entry : 0/0
  5598 ;;		On exit  : 0/0
  5599 ;;		Unchanged: 0/0
  5600 ;; Data sizes:     COMMON   BANK0   BANK1   BANK2   BANK3   BANK4   BANK5   BANK6
  5601 ;;      Params:         4       0       0       0       0       0       0       0
  5602 ;;      Locals:         0       3       0       0       0       0       0       0
  5603 ;;      Temps:          1       0       0       0       0       0       0       0
  5604 ;;      Totals:         5       3       0       0       0       0       0       0
  5605 ;;Total ram usage:        8 bytes
  5606 ;; Hardware stack levels used:    1
  5607 ;; Hardware stack levels required when called:    4
  5608 ;; This function calls:
  5609 ;;		Nothing
  5610 ;; This function is called by:
  5611 ;;		_Get_Voltage
  5612 ;; This function uses a non-reentrant model
  5613 ;;
  5614                           
  5615                           
  5616                           ;psect for function ___lwdiv
  5617  024A                     ___lwdiv:
  5618  024A                     l1536:	
  5619                           ;incstack = 0
  5620                           ; Regs used in ___lwdiv: [wreg+status,2+status,0]
  5621                           
  5622  024A  0020               	movlb	0	; select bank0
  5623  024B  01A1               	clrf	___lwdiv@quotient
  5624  024C  01A2               	clrf	___lwdiv@quotient+1
  5625  024D                     l1538:
  5626  024D  0873               	movf	___lwdiv@divisor,w
  5627  024E  0474               	iorwf	___lwdiv@divisor+1,w
  5628  024F  1903               	btfsc	3,2
  5629  0250  2A52               	goto	u671
  5630  0251  2A53               	goto	u670
  5631  0252                     u671:
  5632  0252  2A82               	goto	l1558
  5633  0253                     u670:
  5634  0253                     l1540:
  5635  0253  01A0               	clrf	___lwdiv@counter
  5636  0254  0AA0               	incf	___lwdiv@counter,f
  5637  0255  2A5F               	goto	l1546
  5638  0256                     l1542:
  5639  0256  3001               	movlw	1
  5640  0257                     u685:
  5641  0257  35F3               	lslf	___lwdiv@divisor,f
  5642  0258  0DF4               	rlf	___lwdiv@divisor+1,f
  5643  0259  0B89               	decfsz	9,f
  5644  025A  2A57               	goto	u685
  5645  025B                     l1544:
  5646  025B  3001               	movlw	1
  5647  025C  00F7               	movwf	??___lwdiv
  5648  025D  0877               	movf	??___lwdiv,w
  5649  025E  07A0               	addwf	___lwdiv@counter,f
  5650  025F                     l1546:
  5651  025F  1FF4               	btfss	___lwdiv@divisor+1,7
  5652  0260  2A62               	goto	u691
  5653  0261  2A63               	goto	u690
  5654  0262                     u691:
  5655  0262  2A56               	goto	l1542
  5656  0263                     u690:
  5657  0263                     l1548:
  5658  0263  3001               	movlw	1
  5659  0264                     u705:
  5660  0264  35A1               	lslf	___lwdiv@quotient,f
  5661  0265  0DA2               	rlf	___lwdiv@quotient+1,f
  5662  0266  0B89               	decfsz	9,f
  5663  0267  2A64               	goto	u705
  5664  0268  0874               	movf	___lwdiv@divisor+1,w
  5665  0269  0276               	subwf	___lwdiv@dividend+1,w
  5666  026A  1D03               	skipz
  5667  026B  2A6E               	goto	u715
  5668  026C  0873               	movf	___lwdiv@divisor,w
  5669  026D  0275               	subwf	___lwdiv@dividend,w
  5670  026E                     u715:
  5671  026E  1C03               	skipc
  5672  026F  2A71               	goto	u711
  5673  0270  2A72               	goto	u710
  5674  0271                     u711:
  5675  0271  2A77               	goto	l1554
  5676  0272                     u710:
  5677  0272                     l1550:
  5678  0272  0873               	movf	___lwdiv@divisor,w
  5679  0273  02F5               	subwf	___lwdiv@dividend,f
  5680  0274  0874               	movf	___lwdiv@divisor+1,w
  5681  0275  3BF6               	subwfb	___lwdiv@dividend+1,f
  5682  0276                     l1552:
  5683  0276  1421               	bsf	___lwdiv@quotient,0
  5684  0277                     l1554:
  5685  0277  3001               	movlw	1
  5686  0278                     u725:
  5687  0278  36F4               	lsrf	___lwdiv@divisor+1,f
  5688  0279  0CF3               	rrf	___lwdiv@divisor,f
  5689  027A  0B89               	decfsz	9,f
  5690  027B  2A78               	goto	u725
  5691  027C                     l1556:
  5692  027C  3001               	movlw	1
  5693  027D  02A0               	subwf	___lwdiv@counter,f
  5694  027E  1D03               	btfss	3,2
  5695  027F  2A81               	goto	u731
  5696  0280  2A82               	goto	u730
  5697  0281                     u731:
  5698  0281  2A63               	goto	l1548
  5699  0282                     u730:
  5700  0282                     l1558:
  5701  0282  0822               	movf	___lwdiv@quotient+1,w
  5702  0283  00F4               	movwf	?___lwdiv+1
  5703  0284  0821               	movf	___lwdiv@quotient,w
  5704  0285  00F3               	movwf	?___lwdiv
  5705  0286                     l770:
  5706  0286  0008               	return
  5707  0287                     __end_of___lwdiv:
  5708                           
  5709                           	psect	text14
  5710  0388                     __ptext14:	
  5711 ;; *************** function _EUSART_Write *****************
  5712 ;; Defined at:
  5713 ;;		line 162 in file "mcc_generated_files/eusart.c"
  5714 ;; Parameters:    Size  Location     Type
  5715 ;;  txData          1    wreg     unsigned char 
  5716 ;; Auto vars:     Size  Location     Type
  5717 ;;  txData          1    3[COMMON] unsigned char 
  5718 ;; Return value:  Size  Location     Type
  5719 ;;                  1    wreg      void 
  5720 ;; Registers used:
  5721 ;;		wreg
  5722 ;; Tracked objects:
  5723 ;;		On entry : 0/0
  5724 ;;		On exit  : 0/0
  5725 ;;		Unchanged: 0/0
  5726 ;; Data sizes:     COMMON   BANK0   BANK1   BANK2   BANK3   BANK4   BANK5   BANK6
  5727 ;;      Params:         0       0       0       0       0       0       0       0
  5728 ;;      Locals:         1       0       0       0       0       0       0       0
  5729 ;;      Temps:          0       0       0       0       0       0       0       0
  5730 ;;      Totals:         1       0       0       0       0       0       0       0
  5731 ;;Total ram usage:        1 bytes
  5732 ;; Hardware stack levels used:    1
  5733 ;; Hardware stack levels required when called:    4
  5734 ;; This function calls:
  5735 ;;		Nothing
  5736 ;; This function is called by:
  5737 ;;		_main
  5738 ;;		_putch
  5739 ;; This function uses a non-reentrant model
  5740 ;;
  5741                           
  5742                           
  5743                           ;psect for function _EUSART_Write
  5744  0388                     _EUSART_Write:
  5745                           
  5746                           ;incstack = 0
  5747                           ; Regs used in _EUSART_Write: [wreg]
  5748                           ;EUSART_Write@txData stored from wreg
  5749  0388  00F3               	movwf	EUSART_Write@txData
  5750  0389                     l1400:
  5751  0389                     l87:	
  5752                           ;mcc_generated_files/eusart.c: 165:     {;mcc_generated_files/eusart.c: 166:     }
  5753                           
  5754                           
  5755                           ;mcc_generated_files/eusart.c: 164:     while(0 == PIR3bits.TXIF)
  5756  0389  002E               	movlb	14	; select bank14
  5757  038A  1E0F               	btfss	15,4	;volatile
  5758  038B  2B8D               	goto	u451
  5759  038C  2B8E               	goto	u450
  5760  038D                     u451:
  5761  038D  2B89               	goto	l87
  5762  038E                     u450:
  5763  038E                     l1402:
  5764                           
  5765                           ;mcc_generated_files/eusart.c: 168:     TX1REG = txData;
  5766  038E  0873               	movf	EUSART_Write@txData,w
  5767  038F  0022               	movlb	2	; select bank2
  5768  0390  009A               	movwf	26	;volatile
  5769  0391                     l90:
  5770  0391  0008               	return
  5771  0392                     __end_of_EUSART_Write:
  5772                           
  5773                           	psect	text15
  5774  031D                     __ptext15:	
  5775 ;; *************** function _EUSART_Read *****************
  5776 ;; Defined at:
  5777 ;;		line 140 in file "mcc_generated_files/eusart.c"
  5778 ;; Parameters:    Size  Location     Type
  5779 ;;		None
  5780 ;; Auto vars:     Size  Location     Type
  5781 ;;  readValue       1    4[COMMON] unsigned char 
  5782 ;; Return value:  Size  Location     Type
  5783 ;;                  1    wreg      unsigned char 
  5784 ;; Registers used:
  5785 ;;		wreg, fsr1l, fsr1h, status,2, status,0
  5786 ;; Tracked objects:
  5787 ;;		On entry : 0/0
  5788 ;;		On exit  : 0/0
  5789 ;;		Unchanged: 0/0
  5790 ;; Data sizes:     COMMON   BANK0   BANK1   BANK2   BANK3   BANK4   BANK5   BANK6
  5791 ;;      Params:         0       0       0       0       0       0       0       0
  5792 ;;      Locals:         1       0       0       0       0       0       0       0
  5793 ;;      Temps:          1       0       0       0       0       0       0       0
  5794 ;;      Totals:         2       0       0       0       0       0       0       0
  5795 ;;Total ram usage:        2 bytes
  5796 ;; Hardware stack levels used:    1
  5797 ;; Hardware stack levels required when called:    4
  5798 ;; This function calls:
  5799 ;;		Nothing
  5800 ;; This function is called by:
  5801 ;;		_main
  5802 ;;		_getch
  5803 ;; This function uses a non-reentrant model
  5804 ;;
  5805                           
  5806                           
  5807                           ;psect for function _EUSART_Read
  5808  031D                     _EUSART_Read:
  5809  031D                     l1378:	
  5810                           ;incstack = 0
  5811                           ; Regs used in _EUSART_Read: [wreg+fsr1l+fsr1h+status,2+status,0]
  5812                           
  5813  031D                     l1380:	
  5814                           ;mcc_generated_files/eusart.c: 144:     while(0 == eusartRxCount)
  5815                           
  5816                           
  5817                           ;mcc_generated_files/eusart.c: 144:     while(0 == eusartRxCount)
  5818  031D  0878               	movf	_eusartRxCount,w	;volatile
  5819  031E  1903               	btfsc	3,2
  5820  031F  2B21               	goto	u431
  5821  0320  2B22               	goto	u430
  5822  0321                     u431:
  5823  0321  2B1D               	goto	l1380
  5824  0322                     u430:
  5825  0322                     l1382:
  5826                           
  5827                           ;mcc_generated_files/eusart.c: 148:     eusartRxLastError = eusartRxStatusBuffer[eusartR
      +                          xTail];
  5828  0322  0879               	movf	_eusartRxTail,w	;volatile
  5829  0323  3EA0               	addlw	(low (_eusartRxStatusBuffer| 0))& (0+255)
  5830  0324  0086               	movwf	6
  5831  0325  0187               	clrf	7
  5832  0326  0801               	movf	1,w
  5833  0327  00F3               	movwf	??_EUSART_Read
  5834  0328  0873               	movf	??_EUSART_Read,w
  5835  0329  0020               	movlb	0	; select bank0
  5836  032A  00DF               	movwf	_eusartRxLastError	;volatile
  5837                           
  5838                           ;mcc_generated_files/eusart.c: 150:     readValue = eusartRxBuffer[eusartRxTail++];
  5839  032B  0879               	movf	_eusartRxTail,w
  5840  032C  3E20               	addlw	(low (_eusartRxBuffer| (0+256)))& (0+255)
  5841  032D  0086               	movwf	6
  5842  032E  3001               	movlw	1	; select bank2/3
  5843  032F  0087               	movwf	7
  5844  0330  0801               	movf	1,w
  5845  0331  00F3               	movwf	??_EUSART_Read
  5846  0332  0873               	movf	??_EUSART_Read,w
  5847  0333  00F4               	movwf	EUSART_Read@readValue
  5848  0334                     l1384:
  5849  0334  3001               	movlw	1
  5850  0335  00F3               	movwf	??_EUSART_Read
  5851  0336  0873               	movf	??_EUSART_Read,w
  5852  0337  07F9               	addwf	_eusartRxTail,f	;volatile
  5853  0338                     l1386:
  5854                           
  5855                           ;mcc_generated_files/eusart.c: 151:     if(sizeof(eusartRxBuffer) <= eusartRxTail)
  5856  0338  3045               	movlw	69
  5857  0339  0279               	subwf	_eusartRxTail,w	;volatile
  5858  033A  1C03               	skipc
  5859  033B  2B3D               	goto	u441
  5860  033C  2B3E               	goto	u440
  5861  033D                     u441:
  5862  033D  2B3F               	goto	l1390
  5863  033E                     u440:
  5864  033E                     l1388:
  5865                           
  5866                           ;mcc_generated_files/eusart.c: 152:     {;mcc_generated_files/eusart.c: 153:         eus
      +                          artRxTail = 0;
  5867  033E  01F9               	clrf	_eusartRxTail	;volatile
  5868  033F                     l1390:
  5869                           
  5870                           ;mcc_generated_files/eusart.c: 155:     PIE3bits.RCIE = 0;
  5871  033F  002E               	movlb	14	; select bank14
  5872  0340  1299               	bcf	25,5	;volatile
  5873  0341                     l1392:
  5874                           
  5875                           ;mcc_generated_files/eusart.c: 156:     eusartRxCount--;
  5876  0341  3001               	movlw	1
  5877  0342  02F8               	subwf	_eusartRxCount,f	;volatile
  5878  0343                     l1394:
  5879                           
  5880                           ;mcc_generated_files/eusart.c: 157:     PIE3bits.RCIE = 1;
  5881  0343  1699               	bsf	25,5	;volatile
  5882  0344                     l1396:
  5883                           
  5884                           ;mcc_generated_files/eusart.c: 159:     return readValue;
  5885  0344  0874               	movf	EUSART_Read@readValue,w
  5886  0345                     l84:
  5887  0345  0008               	return
  5888  0346                     __end_of_EUSART_Read:
  5889                           
  5890                           	psect	intentry
  5891  0004                     __pintentry:	
  5892 ;; *************** function _INTERRUPT_InterruptManager *****************
  5893 ;; Defined at:
  5894 ;;		line 56 in file "mcc_generated_files/interrupt_manager.c"
  5895 ;; Parameters:    Size  Location     Type
  5896 ;;		None
  5897 ;; Auto vars:     Size  Location     Type
  5898 ;;		None
  5899 ;; Return value:  Size  Location     Type
  5900 ;;                  1    wreg      void 
  5901 ;; Registers used:
  5902 ;;		wreg, fsr1l, fsr1h, status,2, status,0, pclath, cstack
  5903 ;; Tracked objects:
  5904 ;;		On entry : 0/0
  5905 ;;		On exit  : 0/0
  5906 ;;		Unchanged: 0/0
  5907 ;; Data sizes:     COMMON   BANK0   BANK1   BANK2   BANK3   BANK4   BANK5   BANK6
  5908 ;;      Params:         0       0       0       0       0       0       0       0
  5909 ;;      Locals:         0       0       0       0       0       0       0       0
  5910 ;;      Temps:          0       0       0       0       0       0       0       0
  5911 ;;      Totals:         0       0       0       0       0       0       0       0
  5912 ;;Total ram usage:        0 bytes
  5913 ;; Hardware stack levels used:    1
  5914 ;; Hardware stack levels required when called:    3
  5915 ;; This function calls:
  5916 ;;		Absolute function
  5917 ;;		_EUSART_Receive_ISR
  5918 ;; This function is called by:
  5919 ;;		Interrupt level 1
  5920 ;; This function uses a non-reentrant model
  5921 ;;
  5922                           
  5923  0004                     _INTERRUPT_InterruptManager:
  5924                           
  5925                           ;incstack = 0
  5926  0004  147E               	bsf	int$flags,0	;set compiler interrupt flag (level 1)
  5927                           
  5928                           ; Regs used in _INTERRUPT_InterruptManager: [wreg+fsr1l+fsr1h+status,2+status,0+pclath+c
      +                          stack]
  5929  0005  3180               	pagesel	$
  5930  0006                     i1l1464:
  5931                           
  5932                           ;mcc_generated_files/interrupt_manager.c: 59:     if(INTCONbits.PEIE == 1)
  5933  0006  1F0B               	btfss	11,6	;volatile
  5934  0007  2809               	goto	u53_21
  5935  0008  280A               	goto	u53_20
  5936  0009                     u53_21:
  5937  0009  2825               	goto	i1l283
  5938  000A                     u53_20:
  5939  000A                     i1l1466:
  5940                           
  5941                           ;mcc_generated_files/interrupt_manager.c: 60:     {;mcc_generated_files/interrupt_manage
      +                          r.c: 61:         if(PIE3bits.RCIE == 1 && PIR3bits.RCIF == 1)
  5942  000A  002E               	movlb	14	; select bank14
  5943  000B  1E99               	btfss	25,5	;volatile
  5944  000C  280E               	goto	u54_21
  5945  000D  280F               	goto	u54_20
  5946  000E                     u54_21:
  5947  000E  2825               	goto	i1l283
  5948  000F                     u54_20:
  5949  000F                     i1l1468:
  5950  000F  1E8F               	btfss	15,5	;volatile
  5951  0010  2812               	goto	u55_21
  5952  0011  2813               	goto	u55_20
  5953  0012                     u55_21:
  5954  0012  2825               	goto	i1l283
  5955  0013                     u55_20:
  5956  0013                     i1l1470:
  5957                           
  5958                           ;mcc_generated_files/interrupt_manager.c: 62:         {;mcc_generated_files/interrupt_ma
      +                          nager.c: 63:             EUSART_RxDefaultInterruptHandler();
  5959  0013  0020               	movlb	0	; select bank0
  5960  0014  0853               	movf	_EUSART_RxDefaultInterruptHandler+1,w
  5961  0015  008A               	movwf	10
  5962  0016  0852               	movf	_EUSART_RxDefaultInterruptHandler,w
  5963  0017  000A               	callw
  5964  0018  3180               	pagesel	$
  5965  0019                     i1l1472:
  5966  0019  1003               	clrc
  5967  001A  0020               	movlb	0	; select bank0
  5968  001B  1C96               	btfss	22,1	;volatile
  5969  001C  1403               	setc
  5970  001D  1803               	btfsc	3,0
  5971  001E  2820               	goto	u56_21
  5972  001F  2823               	goto	u56_20
  5973  0020                     u56_21:
  5974  0020  0020               	movlb	0	; select bank0
  5975  0021  1496               	bsf	22,1	;volatile
  5976  0022  2825               	goto	u57_24
  5977  0023                     u56_20:
  5978  0023  0020               	movlb	0	; select bank0
  5979  0024  1096               	bcf	22,1	;volatile
  5980  0025                     u57_24:
  5981  0025                     i1l283:
  5982  0025  107E               	bcf	int$flags,0	;clear compiler interrupt flag (level 1)
  5983  0026  0009               	retfie
  5984  0027                     __end_of_INTERRUPT_InterruptManager:
  5985                           
  5986                           	psect	text17
  5987  0287                     __ptext17:	
  5988 ;; *************** function _EUSART_Receive_ISR *****************
  5989 ;; Defined at:
  5990 ;;		line 182 in file "mcc_generated_files/eusart.c"
  5991 ;; Parameters:    Size  Location     Type
  5992 ;;		None
  5993 ;; Auto vars:     Size  Location     Type
  5994 ;;		None
  5995 ;; Return value:  Size  Location     Type
  5996 ;;                  1    wreg      void 
  5997 ;; Registers used:
  5998 ;;		wreg, fsr1l, fsr1h, status,2, status,0, pclath, cstack
  5999 ;; Tracked objects:
  6000 ;;		On entry : 0/0
  6001 ;;		On exit  : 0/0
  6002 ;;		Unchanged: 0/0
  6003 ;; Data sizes:     COMMON   BANK0   BANK1   BANK2   BANK3   BANK4   BANK5   BANK6
  6004 ;;      Params:         0       0       0       0       0       0       0       0
  6005 ;;      Locals:         0       0       0       0       0       0       0       0
  6006 ;;      Temps:          0       0       0       0       0       0       0       0
  6007 ;;      Totals:         0       0       0       0       0       0       0       0
  6008 ;;Total ram usage:        0 bytes
  6009 ;; Hardware stack levels used:    1
  6010 ;; Hardware stack levels required when called:    2
  6011 ;; This function calls:
  6012 ;;		Absolute function
  6013 ;;		_EUSART_DefaultErrorHandler
  6014 ;;		_EUSART_DefaultFramingErrorHandler
  6015 ;;		_EUSART_DefaultOverrunErrorHandler
  6016 ;;		_EUSART_RxDataHandler
  6017 ;; This function is called by:
  6018 ;;		_EUSART_Initialize
  6019 ;;		_INTERRUPT_InterruptManager
  6020 ;; This function uses a non-reentrant model
  6021 ;;
  6022                           
  6023                           
  6024                           ;psect for function _EUSART_Receive_ISR
  6025  0287                     _EUSART_Receive_ISR:
  6026  0287                     i1l1404:	
  6027                           ;incstack = 0
  6028                           ; Regs used in _EUSART_Receive_ISR: [wreg+fsr1l+fsr1h+status,2+status,0+pclath+cstack]
  6029                           
  6030                           
  6031                           ;mcc_generated_files/eusart.c: 185:     eusartRxStatusBuffer[eusartRxHead].status = 0;
  6032  0287  087A               	movf	_eusartRxHead,w	;volatile
  6033  0288  3EA0               	addlw	(low (_eusartRxStatusBuffer| 0))& (0+255)
  6034  0289  0086               	movwf	6
  6035  028A  0187               	clrf	7
  6036  028B  0181               	clrf	1
  6037  028C                     i1l1406:
  6038                           
  6039                           ;mcc_generated_files/eusart.c: 187:     if(RC1STAbits.FERR){
  6040  028C  0022               	movlb	2	; select bank2
  6041  028D  1D1D               	btfss	29,2	;volatile
  6042  028E  2A90               	goto	u46_21
  6043  028F  2A91               	goto	u46_20
  6044  0290                     u46_21:
  6045  0290  2A9C               	goto	i1l1412
  6046  0291                     u46_20:
  6047  0291                     i1l1408:
  6048                           
  6049                           ;mcc_generated_files/eusart.c: 188:         eusartRxStatusBuffer[eusartRxHead].ferr = 1;
  6050  0291  087A               	movf	_eusartRxHead,w	;volatile
  6051  0292  3EA0               	addlw	(low (_eusartRxStatusBuffer| 0))& (0+255)
  6052  0293  0086               	movwf	6
  6053  0294  0187               	clrf	7
  6054  0295  1481               	bsf	1,1
  6055  0296                     i1l1410:
  6056                           
  6057                           ;mcc_generated_files/eusart.c: 189:         EUSART_FramingErrorHandler();
  6058  0296  0020               	movlb	0	; select bank0
  6059  0297  0851               	movf	_EUSART_FramingErrorHandler+1,w
  6060  0298  008A               	movwf	10
  6061  0299  0850               	movf	_EUSART_FramingErrorHandler,w
  6062  029A  000A               	callw
  6063  029B  3182               	pagesel	$
  6064  029C                     i1l1412:
  6065                           
  6066                           ;mcc_generated_files/eusart.c: 192:     if(RC1STAbits.OERR){
  6067  029C  0022               	movlb	2	; select bank2
  6068  029D  1C9D               	btfss	29,1	;volatile
  6069  029E  2AA0               	goto	u47_21
  6070  029F  2AA1               	goto	u47_20
  6071  02A0                     u47_21:
  6072  02A0  2AAC               	goto	i1l1418
  6073  02A1                     u47_20:
  6074  02A1                     i1l1414:
  6075                           
  6076                           ;mcc_generated_files/eusart.c: 193:         eusartRxStatusBuffer[eusartRxHead].oerr = 1;
  6077  02A1  087A               	movf	_eusartRxHead,w	;volatile
  6078  02A2  3EA0               	addlw	(low (_eusartRxStatusBuffer| 0))& (0+255)
  6079  02A3  0086               	movwf	6
  6080  02A4  0187               	clrf	7
  6081  02A5  1501               	bsf	1,2
  6082  02A6                     i1l1416:
  6083                           
  6084                           ;mcc_generated_files/eusart.c: 194:         EUSART_OverrunErrorHandler();
  6085  02A6  0020               	movlb	0	; select bank0
  6086  02A7  084F               	movf	_EUSART_OverrunErrorHandler+1,w
  6087  02A8  008A               	movwf	10
  6088  02A9  084E               	movf	_EUSART_OverrunErrorHandler,w
  6089  02AA  000A               	callw
  6090  02AB  3182               	pagesel	$
  6091  02AC                     i1l1418:
  6092                           
  6093                           ;mcc_generated_files/eusart.c: 197:     if(eusartRxStatusBuffer[eusartRxHead].status){
  6094  02AC  087A               	movf	_eusartRxHead,w	;volatile
  6095  02AD  3EA0               	addlw	(low (_eusartRxStatusBuffer| 0))& (0+255)
  6096  02AE  0086               	movwf	6
  6097  02AF  0187               	clrf	7
  6098  02B0  0801               	movf	1,w
  6099  02B1  1903               	btfsc	3,2
  6100  02B2  2AB4               	goto	u48_21
  6101  02B3  2AB5               	goto	u48_20
  6102  02B4                     u48_21:
  6103  02B4  2ABC               	goto	i1l1422
  6104  02B5                     u48_20:
  6105  02B5                     i1l1420:
  6106                           
  6107                           ;mcc_generated_files/eusart.c: 198:         EUSART_ErrorHandler();
  6108  02B5  0020               	movlb	0	; select bank0
  6109  02B6  084D               	movf	_EUSART_ErrorHandler+1,w
  6110  02B7  008A               	movwf	10
  6111  02B8  084C               	movf	_EUSART_ErrorHandler,w
  6112  02B9  000A               	callw
  6113  02BA  3182               	pagesel	$
  6114                           
  6115                           ;mcc_generated_files/eusart.c: 199:     } else {
  6116  02BB  2ABF               	goto	i1l103
  6117  02BC                     i1l1422:
  6118                           
  6119                           ;mcc_generated_files/eusart.c: 200:         EUSART_RxDataHandler();
  6120  02BC  3183  2346  3182   	fcall	_EUSART_RxDataHandler
  6121  02BF                     i1l103:
  6122  02BF  0008               	return
  6123  02C0                     __end_of_EUSART_Receive_ISR:
  6124                           
  6125                           	psect	text18
  6126  03CA                     __ptext18:	
  6127 ;; *************** function _EUSART_DefaultOverrunErrorHandler *****************
  6128 ;; Defined at:
  6129 ;;		line 220 in file "mcc_generated_files/eusart.c"
  6130 ;; Parameters:    Size  Location     Type
  6131 ;;		None
  6132 ;; Auto vars:     Size  Location     Type
  6133 ;;		None
  6134 ;; Return value:  Size  Location     Type
  6135 ;;                  1    wreg      void 
  6136 ;; Registers used:
  6137 ;;		None
  6138 ;; Tracked objects:
  6139 ;;		On entry : 0/0
  6140 ;;		On exit  : 0/0
  6141 ;;		Unchanged: 0/0
  6142 ;; Data sizes:     COMMON   BANK0   BANK1   BANK2   BANK3   BANK4   BANK5   BANK6
  6143 ;;      Params:         0       0       0       0       0       0       0       0
  6144 ;;      Locals:         0       0       0       0       0       0       0       0
  6145 ;;      Temps:          0       0       0       0       0       0       0       0
  6146 ;;      Totals:         0       0       0       0       0       0       0       0
  6147 ;;Total ram usage:        0 bytes
  6148 ;; Hardware stack levels used:    1
  6149 ;; This function calls:
  6150 ;;		Nothing
  6151 ;; This function is called by:
  6152 ;;		_EUSART_Initialize
  6153 ;;		_EUSART_Receive_ISR
  6154 ;; This function uses a non-reentrant model
  6155 ;;
  6156                           
  6157                           
  6158                           ;psect for function _EUSART_DefaultOverrunErrorHandler
  6159  03CA                     _EUSART_DefaultOverrunErrorHandler:
  6160  03CA                     i1l1298:	
  6161                           ;incstack = 0
  6162                           ; Regs used in _EUSART_DefaultOverrunErrorHandler: []
  6163                           
  6164                           
  6165                           ;mcc_generated_files/eusart.c: 223:     RC1STAbits.CREN = 0;
  6166  03CA  0022               	movlb	2	; select bank2
  6167  03CB  121D               	bcf	29,4	;volatile
  6168                           
  6169                           ;mcc_generated_files/eusart.c: 224:     RC1STAbits.CREN = 1;
  6170  03CC  161D               	bsf	29,4	;volatile
  6171  03CD                     i1l113:
  6172  03CD  0008               	return
  6173  03CE                     __end_of_EUSART_DefaultOverrunErrorHandler:
  6174                           
  6175                           	psect	text19
  6176  03D2                     __ptext19:	
  6177 ;; *************** function _EUSART_DefaultFramingErrorHandler *****************
  6178 ;; Defined at:
  6179 ;;		line 218 in file "mcc_generated_files/eusart.c"
  6180 ;; Parameters:    Size  Location     Type
  6181 ;;		None
  6182 ;; Auto vars:     Size  Location     Type
  6183 ;;		None
  6184 ;; Return value:  Size  Location     Type
  6185 ;;                  1    wreg      void 
  6186 ;; Registers used:
  6187 ;;		None
  6188 ;; Tracked objects:
  6189 ;;		On entry : 0/0
  6190 ;;		On exit  : 0/0
  6191 ;;		Unchanged: 0/0
  6192 ;; Data sizes:     COMMON   BANK0   BANK1   BANK2   BANK3   BANK4   BANK5   BANK6
  6193 ;;      Params:         0       0       0       0       0       0       0       0
  6194 ;;      Locals:         0       0       0       0       0       0       0       0
  6195 ;;      Temps:          0       0       0       0       0       0       0       0
  6196 ;;      Totals:         0       0       0       0       0       0       0       0
  6197 ;;Total ram usage:        0 bytes
  6198 ;; Hardware stack levels used:    1
  6199 ;; This function calls:
  6200 ;;		Nothing
  6201 ;; This function is called by:
  6202 ;;		_EUSART_Initialize
  6203 ;;		_EUSART_Receive_ISR
  6204 ;; This function uses a non-reentrant model
  6205 ;;
  6206                           
  6207                           
  6208                           ;psect for function _EUSART_DefaultFramingErrorHandler
  6209  03D2                     _EUSART_DefaultFramingErrorHandler:
  6210  03D2                     i1l110:	
  6211                           ;incstack = 0
  6212                           ; Regs used in _EUSART_DefaultFramingErrorHandler: []
  6213                           
  6214  03D2  0008               	return
  6215  03D3                     __end_of_EUSART_DefaultFramingErrorHandler:
  6216                           
  6217                           	psect	text20
  6218  03CE                     __ptext20:	
  6219 ;; *************** function _EUSART_DefaultErrorHandler *****************
  6220 ;; Defined at:
  6221 ;;		line 228 in file "mcc_generated_files/eusart.c"
  6222 ;; Parameters:    Size  Location     Type
  6223 ;;		None
  6224 ;; Auto vars:     Size  Location     Type
  6225 ;;		None
  6226 ;; Return value:  Size  Location     Type
  6227 ;;                  1    wreg      void 
  6228 ;; Registers used:
  6229 ;;		wreg, fsr1l, fsr1h, status,2, status,0, pclath, cstack
  6230 ;; Tracked objects:
  6231 ;;		On entry : 0/0
  6232 ;;		On exit  : 0/0
  6233 ;;		Unchanged: 0/0
  6234 ;; Data sizes:     COMMON   BANK0   BANK1   BANK2   BANK3   BANK4   BANK5   BANK6
  6235 ;;      Params:         0       0       0       0       0       0       0       0
  6236 ;;      Locals:         0       0       0       0       0       0       0       0
  6237 ;;      Temps:          0       0       0       0       0       0       0       0
  6238 ;;      Totals:         0       0       0       0       0       0       0       0
  6239 ;;Total ram usage:        0 bytes
  6240 ;; Hardware stack levels used:    1
  6241 ;; Hardware stack levels required when called:    1
  6242 ;; This function calls:
  6243 ;;		_EUSART_RxDataHandler
  6244 ;; This function is called by:
  6245 ;;		_EUSART_Initialize
  6246 ;;		_EUSART_Receive_ISR
  6247 ;; This function uses a non-reentrant model
  6248 ;;
  6249                           
  6250                           
  6251                           ;psect for function _EUSART_DefaultErrorHandler
  6252  03CE                     _EUSART_DefaultErrorHandler:
  6253  03CE                     i1l1300:	
  6254                           ;incstack = 0
  6255                           ; Regs used in _EUSART_DefaultErrorHandler: [wreg+fsr1l+fsr1h+status,2+status,0+pclath+c
      +                          stack]
  6256                           
  6257                           
  6258                           ;mcc_generated_files/eusart.c: 229:     EUSART_RxDataHandler();
  6259  03CE  3183  2346  3183   	fcall	_EUSART_RxDataHandler
  6260  03D1                     i1l116:
  6261  03D1  0008               	return
  6262  03D2                     __end_of_EUSART_DefaultErrorHandler:
  6263                           
  6264                           	psect	text21
  6265  0346                     __ptext21:	
  6266 ;; *************** function _EUSART_RxDataHandler *****************
  6267 ;; Defined at:
  6268 ;;		line 206 in file "mcc_generated_files/eusart.c"
  6269 ;; Parameters:    Size  Location     Type
  6270 ;;		None
  6271 ;; Auto vars:     Size  Location     Type
  6272 ;;  test            2    0        int 
  6273 ;; Return value:  Size  Location     Type
  6274 ;;                  1    wreg      void 
  6275 ;; Registers used:
  6276 ;;		wreg, fsr1l, fsr1h, status,2, status,0
  6277 ;; Tracked objects:
  6278 ;;		On entry : 0/0
  6279 ;;		On exit  : 0/0
  6280 ;;		Unchanged: 0/0
  6281 ;; Data sizes:     COMMON   BANK0   BANK1   BANK2   BANK3   BANK4   BANK5   BANK6
  6282 ;;      Params:         0       0       0       0       0       0       0       0
  6283 ;;      Locals:         2       0       0       0       0       0       0       0
  6284 ;;      Temps:          1       0       0       0       0       0       0       0
  6285 ;;      Totals:         3       0       0       0       0       0       0       0
  6286 ;;Total ram usage:        3 bytes
  6287 ;; Hardware stack levels used:    1
  6288 ;; This function calls:
  6289 ;;		Nothing
  6290 ;; This function is called by:
  6291 ;;		_EUSART_Receive_ISR
  6292 ;;		_EUSART_DefaultErrorHandler
  6293 ;; This function uses a non-reentrant model
  6294 ;;
  6295                           
  6296                           
  6297                           ;psect for function _EUSART_RxDataHandler
  6298  0346                     _EUSART_RxDataHandler:
  6299  0346                     i1l1264:	
  6300                           ;incstack = 0
  6301                           ; Regs used in _EUSART_RxDataHandler: [wreg+fsr1l+fsr1h+status,2+status,0]
  6302                           
  6303                           
  6304                           ;mcc_generated_files/eusart.c: 208:     eusartRxBuffer[eusartRxHead++] = RC1REG;
  6305  0346  0022               	movlb	2	; select bank2
  6306  0347  0819               	movf	25,w	;volatile
  6307  0348  00F0               	movwf	??_EUSART_RxDataHandler
  6308  0349  087A               	movf	_eusartRxHead,w
  6309  034A  3E20               	addlw	(low (_eusartRxBuffer| (0+256)))& (0+255)
  6310  034B  0086               	movwf	6
  6311  034C  3001               	movlw	1	; select bank2/3
  6312  034D  0087               	movwf	7
  6313  034E  0870               	movf	??_EUSART_RxDataHandler,w
  6314  034F  0081               	movwf	1
  6315  0350                     i1l1266:
  6316  0350  3001               	movlw	1
  6317  0351  00F0               	movwf	??_EUSART_RxDataHandler
  6318  0352  0870               	movf	??_EUSART_RxDataHandler,w
  6319  0353  07FA               	addwf	_eusartRxHead,f	;volatile
  6320  0354                     i1l1268:
  6321  0354                     i1l1270:
  6322                           
  6323                           ;mcc_generated_files/eusart.c: 210:     if(sizeof(eusartRxBuffer) <= eusartRxHead)
  6324  0354  3045               	movlw	69
  6325  0355  027A               	subwf	_eusartRxHead,w	;volatile
  6326  0356  1C03               	skipc
  6327  0357  2B59               	goto	u35_21
  6328  0358  2B5A               	goto	u35_20
  6329  0359                     u35_21:
  6330  0359  2B5B               	goto	i1l1274
  6331  035A                     u35_20:
  6332  035A                     i1l1272:
  6333                           
  6334                           ;mcc_generated_files/eusart.c: 211:     {;mcc_generated_files/eusart.c: 212:         eus
      +                          artRxHead = 0;
  6335  035A  01FA               	clrf	_eusartRxHead	;volatile
  6336  035B                     i1l1274:
  6337                           
  6338                           ;mcc_generated_files/eusart.c: 214:     eusartRxCount++;
  6339  035B  3001               	movlw	1
  6340  035C  00F0               	movwf	??_EUSART_RxDataHandler
  6341  035D  0870               	movf	??_EUSART_RxDataHandler,w
  6342  035E  07F8               	addwf	_eusartRxCount,f	;volatile
  6343  035F                     i1l107:
  6344  035F  0008               	return
  6345  0360                     __end_of_EUSART_RxDataHandler:
  6346  007E                     btemp	set	126	;btemp
  6347  007E                     int$flags	set	126
  6348  007E                     wtemp0	set	126
  6349  2122                     
  6350                           	psect	config
  6351                           
  6352                           ;Config register CONFIG1 @ 0x8007
  6353                           ;	External Oscillator mode selection bits
  6354                           ;	FEXTOSC = OFF, Oscillator not enabled
  6355                           ;	Power-up default value for COSC bits
  6356                           ;	RSTOSC = HFINT1, HFINTOSC (1MHz)
  6357                           ;	Clock Out Enable bit
  6358                           ;	CLKOUTEN = OFF, CLKOUT function is disabled; i/o or oscillator function on OSC2
  6359                           ;	Clock Switch Enable bit
  6360                           ;	CSWEN = ON, Writing to NOSC and NDIV is allowed
  6361                           ;	Fail-Safe Clock Monitor Enable bit
  6362                           ;	FCMEN = ON, FSCM timer enabled
  6363  8007                     	org	32775
  6364  8007  3FEC               	dw	16364
  6365                           
  6366                           ;Config register CONFIG2 @ 0x8008
  6367                           ;	Master Clear Enable bit
  6368                           ;	MCLRE = ON, MCLR pin is Master Clear function
  6369                           ;	Power-up Timer Enable bit
  6370                           ;	PWRTE = OFF, PWRT disabled
  6371                           ;	Low-Power BOR enable bit
  6372                           ;	LPBOREN = OFF, ULPBOR disabled
  6373                           ;	Brown-out reset enable bits
  6374                           ;	BOREN = ON, Brown-out Reset Enabled, SBOREN bit is ignored
  6375                           ;	Brown-out Reset Voltage Selection
  6376                           ;	BORV = LO, Brown-out Reset Voltage (VBOR) set to 1.9V on LF, and 2.45V on F Devices
  6377                           ;	Zero-cross detect disable
  6378                           ;	ZCD = OFF, Zero-cross detect circuit is disabled at POR.
  6379                           ;	Peripheral Pin Select one-way control
  6380                           ;	PPS1WAY = ON, The PPSLOCK bit can be cleared and set only once in software
  6381                           ;	Stack Overflow/Underflow Reset Enable bit
  6382                           ;	STVREN = ON, Stack Overflow or Underflow will cause a reset
  6383                           ;	Background Debugger
  6384                           ;	DEBUG = OFF, Background Debugger disabled
  6385  8008                     	org	32776
  6386  8008  3FFF               	dw	16383
  6387                           
  6388                           ;Config register CONFIG3 @ 0x8009
  6389                           ;	WDT Period Select bits
  6390                           ;	WDTCPS = WDTCPS_31, Divider ratio 1:65536; software control of WDTPS
  6391                           ;	WDT operating mode
  6392                           ;	WDTE = OFF, WDT Disabled, SWDTEN is ignored
  6393                           ;	WDT Window Select bits
  6394                           ;	WDTCWS = WDTCWS_7, window always open (100%); software control; keyed access not requi
      +                          red
  6395                           ;	WDT input clock selector
  6396                           ;	WDTCCS = SC, Software Control
  6397  8009                     	org	32777
  6398  8009  3F9F               	dw	16287
  6399                           
  6400                           ;Config register CONFIG4 @ 0x800A
  6401                           ;	UserNVM self-write protection bits
  6402                           ;	WRT = OFF, Write protection off
  6403                           ;	Scanner Enable bit
  6404                           ;	SCANE = available, Scanner module is available for use
  6405                           ;	Low Voltage Programming Enable bit
  6406                           ;	LVP = ON, Low Voltage programming enabled. MCLR/Vpp pin function is MCLR.
  6407  800A                     	org	32778
  6408  800A  3FFF               	dw	16383
  6409                           
  6410                           ;Config register CONFIG5 @ 0x800B
  6411                           ;	UserNVM Program memory code protection bit
  6412                           ;	CP = OFF, Program Memory code protection disabled
  6413                           ;	DataNVM code protection bit
  6414                           ;	CPD = OFF, Data EEPROM code protection disabled
  6415  800B                     	org	32779
  6416  800B  3FFF               	dw	16383

Data Sizes:
    Strings     0
    Constant    0
    Data        8
    BSS         145
    Persistent  40
    Stack       0

Auto Spaces:
    Space          Size  Autos    Used
    COMMON           14      8      11
    BANK0            80     44      64
    BANK1            80      0      69
    BANK2            80      0      69
    BANK3            50      0       0
    BANK4             0      0       0
    BANK5             0      0       0
    BANK6             0      0       0

Pointer List with Targets:

    main@index	PTR unsigned int  size(2) Largest target is 206
		 -> Coulomb_Data.ID(BIGRAM[2]), Coulomb_Data(BIGRAM[206]), 

    EUSART_SetRxInterruptHandler@interruptHandler	PTR FTN()void  size(2) Largest target is 1
		 -> EUSART_Receive_ISR(), 

    EUSART_RxDefaultInterruptHandler	PTR FTN()void  size(2) Largest target is 1
		 -> Absolute function(), EUSART_Receive_ISR(), 

    EUSART_SetErrorHandler@interruptHandler	PTR FTN()void  size(2) Largest target is 1
		 -> EUSART_DefaultErrorHandler(), 

    EUSART_SetOverrunErrorHandler@interruptHandler	PTR FTN()void  size(2) Largest target is 1
		 -> EUSART_DefaultOverrunErrorHandler(), 

    EUSART_SetFramingErrorHandler@interruptHandler	PTR FTN()void  size(2) Largest target is 1
		 -> EUSART_DefaultFramingErrorHandler(), 

    EUSART_ErrorHandler	PTR FTN()void  size(2) Largest target is 1
		 -> Absolute function(), EUSART_DefaultErrorHandler(), 

    EUSART_OverrunErrorHandler	PTR FTN()void  size(2) Largest target is 1
		 -> Absolute function(), EUSART_DefaultOverrunErrorHandler(), 

    EUSART_FramingErrorHandler	PTR FTN()void  size(2) Largest target is 1
		 -> Absolute function(), EUSART_DefaultFramingErrorHandler(), 


Critical Paths under _main in COMMON

    _EUSART_Initialize->_EUSART_SetErrorHandler
    _EUSART_Initialize->_EUSART_SetFramingErrorHandler
    _EUSART_Initialize->_EUSART_SetOverrunErrorHandler
    _EUSART_Initialize->_EUSART_SetRxInterruptHandler
    _Get_Voltage->___lwdiv

Critical Paths under _INTERRUPT_InterruptManager in COMMON

    _EUSART_Receive_ISR->_EUSART_RxDataHandler
    _EUSART_DefaultErrorHandler->_EUSART_RxDataHandler

Critical Paths under _main in BANK0

    _main->_Get_Voltage
    _Get_Voltage->___lwdiv

Critical Paths under _INTERRUPT_InterruptManager in BANK0

    None.

Critical Paths under _main in BANK1

    None.

Critical Paths under _INTERRUPT_InterruptManager in BANK1

    None.

Critical Paths under _main in BANK2

    None.

Critical Paths under _INTERRUPT_InterruptManager in BANK2

    None.

Critical Paths under _main in BANK3

    None.

Critical Paths under _INTERRUPT_InterruptManager in BANK3

    None.

Critical Paths under _main in BANK4

    None.

Critical Paths under _INTERRUPT_InterruptManager in BANK4

    None.

Critical Paths under _main in BANK5

    None.

Critical Paths under _INTERRUPT_InterruptManager in BANK5

    None.

Critical Paths under _main in BANK6

    None.

Critical Paths under _INTERRUPT_InterruptManager in BANK6

    None.

Call Graph Tables:

 ---------------------------------------------------------------------------------
 (Depth) Function   	        Calls       Base Space   Used Autos Params    Refs
 ---------------------------------------------------------------------------------
 (0) _main                                                22    22      0    2236
                                             22 BANK0     22    22      0
                        _EUSART_Read
                       _EUSART_Write
                        _Get_Voltage
                  _SYSTEM_Initialize
                     _TMR0_ReadTimer
 ---------------------------------------------------------------------------------
 (1) _TMR0_ReadTimer                                       2     2      0      23
                                              3 COMMON     2     2      0
 ---------------------------------------------------------------------------------
 (1) _SYSTEM_Initialize                                    0     0      0     392
                  _EUSART_Initialize
              _OSCILLATOR_Initialize
             _PIN_MANAGER_Initialize
                     _PMD_Initialize
                    _TMR0_Initialize
 ---------------------------------------------------------------------------------
 (2) _TMR0_Initialize                                      0     0      0       0
 ---------------------------------------------------------------------------------
 (2) _PMD_Initialize                                       0     0      0       0
 ---------------------------------------------------------------------------------
 (2) _PIN_MANAGER_Initialize                               0     0      0       0
 ---------------------------------------------------------------------------------
 (2) _OSCILLATOR_Initialize                                0     0      0       0
 ---------------------------------------------------------------------------------
 (2) _EUSART_Initialize                                    0     0      0     392
             _EUSART_SetErrorHandler
      _EUSART_SetFramingErrorHandler
      _EUSART_SetOverrunErrorHandler
       _EUSART_SetRxInterruptHandler
 ---------------------------------------------------------------------------------
 (3) _EUSART_SetRxInterruptHandler                         2     0      2      98
                                              3 COMMON     2     0      2
 ---------------------------------------------------------------------------------
 (3) _EUSART_SetOverrunErrorHandler                        2     0      2      98
                                              3 COMMON     2     0      2
 ---------------------------------------------------------------------------------
 (3) _EUSART_SetFramingErrorHandler                        2     0      2      98
                                              3 COMMON     2     0      2
 ---------------------------------------------------------------------------------
 (3) _EUSART_SetErrorHandler                               2     0      2      98
                                              3 COMMON     2     0      2
 ---------------------------------------------------------------------------------
 (1) _Get_Voltage                                         19    17      2    1392
                                              3 BANK0     19    17      2
                            ___lwdiv
 ---------------------------------------------------------------------------------
 (2) ___lwdiv                                              8     4      4     961
                                              3 COMMON     5     1      4
                                              0 BANK0      3     3      0
 ---------------------------------------------------------------------------------
 (1) _EUSART_Write                                         1     1      0      22
                                              3 COMMON     1     1      0
 ---------------------------------------------------------------------------------
 (1) _EUSART_Read                                          2     2      0      24
                                              3 COMMON     2     2      0
 ---------------------------------------------------------------------------------
 Estimated maximum stack depth 3
 ---------------------------------------------------------------------------------
 (Depth) Function   	        Calls       Base Space   Used Autos Params    Refs
 ---------------------------------------------------------------------------------
 (4) _INTERRUPT_InterruptManager                           0     0      0       2
                   Absolute function *
                 _EUSART_Receive_ISR *
 ---------------------------------------------------------------------------------
 (5) _EUSART_Receive_ISR                                   0     0      0       2
                   Absolute function *
         _EUSART_DefaultErrorHandler *
  _EUSART_DefaultFramingErrorHandler *
  _EUSART_DefaultOverrunErrorHandler *
               _EUSART_RxDataHandler
 ---------------------------------------------------------------------------------
 (6) _EUSART_DefaultOverrunErrorHandler                    0     0      0       0
 ---------------------------------------------------------------------------------
 (6) _EUSART_DefaultFramingErrorHandler                    0     0      0       0
 ---------------------------------------------------------------------------------
 (6) _EUSART_DefaultErrorHandler                           0     0      0       1
               _EUSART_RxDataHandler
 ---------------------------------------------------------------------------------
 (6) _EUSART_RxDataHandler                                 3     3      0       1
                                              0 COMMON     3     3      0
 ---------------------------------------------------------------------------------
 (6) Absolute function(Fake)                               0     0      0       0
 ---------------------------------------------------------------------------------
 Estimated maximum stack depth 6
 ---------------------------------------------------------------------------------

 Call Graph Graphs:

 _main (ROOT)
   _EUSART_Read
   _EUSART_Write
   _Get_Voltage
     ___lwdiv
   _SYSTEM_Initialize
     _EUSART_Initialize
       _EUSART_SetErrorHandler
       _EUSART_SetFramingErrorHandler
       _EUSART_SetOverrunErrorHandler
       _EUSART_SetRxInterruptHandler
     _OSCILLATOR_Initialize
     _PIN_MANAGER_Initialize
     _PMD_Initialize
     _TMR0_Initialize
   _TMR0_ReadTimer

 _INTERRUPT_InterruptManager (ROOT)
   Absolute function(Fake) *
   _EUSART_Receive_ISR *
     Absolute function(Fake) *
     _EUSART_DefaultErrorHandler *
       _EUSART_RxDataHandler
     _EUSART_DefaultFramingErrorHandler *
     _EUSART_DefaultOverrunErrorHandler *
     _EUSART_RxDataHandler *

 Address spaces:
Name               Size   Autos  Total    Cost      Usage
BIGRAM             1F0      0       0       0        0.0%
EEDATA             100      0       0       0        0.0%
NULL                 0      0       0       0        0.0%
CODE                 0      0       0       0        0.0%
BITCOMMON            E      0       0       1        0.0%
BITSFR0              0      0       0       1        0.0%
SFR0                 0      0       0       1        0.0%
COMMON               E      8       B       2       78.6%
BITSFR1              0      0       0       2        0.0%
SFR1                 0      0       0       2        0.0%
BITSFR2              0      0       0       3        0.0%
SFR2                 0      0       0       3        0.0%
STACK                0      0       0       3        0.0%
BITSFR3              0      0       0       4        0.0%
SFR3                 0      0       0       4        0.0%
ABS                  0      0      D5       4        0.0%
BITBANK0            50      0       0       5        0.0%
BITSFR4              0      0       0       5        0.0%
SFR4                 0      0       0       5        0.0%
BANK0               50     2C      40       6       80.0%
BITSFR5              0      0       0       6        0.0%
SFR5                 0      0       0       6        0.0%
BITBANK1            50      0       0       7        0.0%
BITSFR6              0      0       0       7        0.0%
SFR6                 0      0       0       7        0.0%
BANK1               50      0      45       8       86.2%
BITSFR7              0      0       0       8        0.0%
SFR7                 0      0       0       8        0.0%
BITBANK2            50      0       0       9        0.0%
BITSFR8              0      0       0       9        0.0%
SFR8                 0      0       0       9        0.0%
BANK2               50      0      45      10       86.2%
BITSFR9              0      0       0      10        0.0%
SFR9                 0      0       0      10        0.0%
BITBANK3            50      0       0      11        0.0%
BITSFR10             0      0       0      11        0.0%
SFR10                0      0       0      11        0.0%
BANK3               32      0       0      12        0.0%
BITSFR11             0      0       0      12        0.0%
SFR11                0      0       0      12        0.0%
BITBANK4            50      0       0      13        0.0%
BITSFR12             0      0       0      13        0.0%
SFR12                0      0       0      13        0.0%
BITSFR13             0      0       0      14        0.0%
SFR13                0      0       0      14        0.0%
BANK4                0      0       0      14        0.0%
BITBANK5            50      0       0      15        0.0%
BITSFR14             0      0       0      15        0.0%
SFR14                0      0       0      15        0.0%
BITSFR15             0      0       0      16        0.0%
SFR15                0      0       0      16        0.0%
BANK5                0      0       0      16        0.0%
BITBANK6            10      0       0      17        0.0%
BITSFR16             0      0       0      17        0.0%
SFR16                0      0       0      17        0.0%
BITSFR17             0      0       0      18        0.0%
SFR17                0      0       0      18        0.0%
BANK6                0      0       0      18        0.0%
BITSFR18             0      0       0      19        0.0%
SFR18                0      0       0      19        0.0%
DATA                 0      0      D5      19        0.0%
BITSFR19             0      0       0      20        0.0%
SFR19                0      0       0      20        0.0%
BITSFR20             0      0       0      21        0.0%
SFR20                0      0       0      21        0.0%
BITSFR21             0      0       0      22        0.0%
SFR21                0      0       0      22        0.0%
BITSFR22             0      0       0      23        0.0%
SFR22                0      0       0      23        0.0%
BITSFR23             0      0       0      24        0.0%
SFR23                0      0       0      24        0.0%
BITSFR24             0      0       0      25        0.0%
SFR24                0      0       0      25        0.0%
BITSFR25             0      0       0      26        0.0%
SFR25                0      0       0      26        0.0%
BITSFR26             0      0       0      27        0.0%
SFR26                0      0       0      27        0.0%
BITSFR27             0      0       0      28        0.0%
SFR27                0      0       0      28        0.0%
BITSFR28             0      0       0      29        0.0%
SFR28                0      0       0      29        0.0%
BITSFR29             0      0       0      30        0.0%
SFR29                0      0       0      30        0.0%
BITSFR30             0      0       0      31        0.0%
SFR30                0      0       0      31        0.0%
BITSFR31             0      0       0      32        0.0%
SFR31                0      0       0      32        0.0%


Microchip Technology PIC Macro Assembler V2.20 build 20200408173844 
Symbol Table                                                                                   Thu Feb 18 17:28:51 2021

                ?_EUSART_SetRxInterruptHandler 0073                                              _i 005C  
                                           l63 02EF                                             l90 0391  
                                           l84 0345                                             l87 0389  
                                           _ch 005E                                            l122 03BD  
                                          l125 03C9                                            l222 031C  
                                          l119 03C3                                            l128 03B7  
                                          l240 0387                                            l163 036F  
                                          l315 0218                                            l166 039A  
                                          l336 019B                                            l169 03AA  
                                          l249 03B1                                            l338 019B  
                                          l770 0286                                            u430 0322  
                                          u431 0321                                            u440 033E  
                                          u441 033D                                            u450 038E  
                                          u451 038D                                            u710 0272  
                                          u711 0271                                            u800 01D9  
                                          u705 0264                                            u801 01D8  
                                          u730 0282                                            u810 01DF  
                                          u731 0281                                            u715 026E  
                                          u811 01DE                                            u740 00B6  
                                          u820 0204                                            u725 0278  
                                          u741 00B5                                            u821 0203  
                                          u805 01D5                                            u670 0253  
                                          u750 00F2                                            u830 0212  
                                          u671 0252                                            u751 00F1  
                                          u831 0211                                            u760 012E  
                                          u840 021D                                            u761 012D  
                                          u841 021C                                            u825 0200  
                                          u690 0263                                            u770 016A  
                                          u850 022B                                            u691 0262  
                                          u771 0169                                            u851 022A  
                                          u835 020E                                            u860 0247  
                                          u780 01AC                                            u685 0257  
                                          u861 0246                                            u790 01BA  
                                          u791 01B9                                            u865 0243  
                       ??_EUSART_RxDataHandler 0070                 ?_EUSART_SetFramingErrorHandler 0073  
                      __size_of_PMD_Initialize 0008                                            wreg 0009  
                                 ?_EUSART_Read 0070                                           l1310 02F8  
                                         l1302 03A3                                           l1400 0389  
                                         l1320 030A                                           l1312 02FA  
                                         l1304 02F0                                           l1402 038E  
                                         l1330 0314                                           l1322 030C  
                                         l1314 02FD                                           l1306 02F4  
                                         l1260 03B8                                           l1340 0396  
                                         l1332 0316                                           l1324 030E  
                                         l1316 02FF                                           l1308 02F6  
                                         l1262 03C4                                           l1342 0399  
                                         l1334 0319                                           l1326 0310  
                                         l1318 0308                                           l1350 0384  
                                         l1430 0369                                           l1256 03B2  
                                         l1280 02C9                                           l1336 0392  
                                         l1328 0312                                           l1344 037C  
                                         l1432 036C                                           l1424 0360  
                                         l1258 03BE                                           l1290 02D3  
                                         l1282 02CC                                           l1338 0395  
                                         l1346 0381                                           l1426 0363  
                                         l1434 03AB                                           l1602 01BD  
                                         l1610 01D9                                           l1380 031D  
                                         l1540 0253                                           l1292 02DA  
                                         l1284 02CE                                           l1276 02C0  
                                         l1348 0382                                           l1428 0366  
                                         l1620 0204                                           l1612 01DF  
                                         l1604 01C6                                           l1390 033F  
                                         l1382 0322                                           l1550 0272  
                                         l1542 0256                                           l1294 02E1  
                                         l1286 02D0                                           l1278 02C2  
                                         l1630 022B                                           l1622 0212  
                                         l1614 01E5                                           l1606 01C7  
                                         l1392 0341                                           l1384 0334  
                                         l1552 0276                                           l1544 025B  
                                         l1536 024A                                           l1296 02ED  
                                         l1288 02D2                                           l1640 023A  
                                         l1624 021D                                           l1616 01F3  
                                         l1608 01CC                                           l1394 0343  
                                         l1386 0338                                           l1378 031D  
                                         l1554 0277                                           l1546 025F  
                                         l1538 024D                                           l1570 00F2  
                                         l1562 0069                                           l1642 0247  
                                         l1626 0222                                           l1618 01F7  
                                         l1396 0344                                           l1388 033E  
                                         l1556 027C                                           l1548 0263  
                                         l1572 0123                                           l1564 00AB  
                                         l1636 022D                                           l1628 0226  
                                         l1558 0282                                           l1574 012E  
                                         l1566 00B6                                           l1638 0235  
                                         l1590 01B0                                           l1582 019C  
                                         l1576 015F                                           l1568 00E7  
                                         l1592 01B0                                           l1584 019F  
                                         l1578 016A                                           l1594 01B2  
                                         l1586 01A0                                           l1596 01BA  
                                         l1588 01A1                                           _LATA 0016  
                                         _LATB 0017                                           _LATC 0018  
                                         _PMD0 0796                                           _PMD1 0797  
                                         _PMD2 0798                                           _PMD3 0799  
                                         _PMD4 079A                                           _PMD5 079B  
                                         _WPUA 0F39                                           _WPUB 0F44  
                                         _WPUC 0F4F                                           _WPUE 0F65  
                                         _main 019C                            __end_of_Get_Voltage 019C  
                                         fsr0h 0005                                           fsr1h 0007  
                                         indf0 0000                                           fsr0l 0004  
                                         indf1 0001                                           fsr1l 0006  
                                         btemp 007E                                           start 0027  
                      __end_of_TMR0_Initialize 0388                                  ?_EUSART_Write 0070  
               __size_of_OSCILLATOR_Initialize 0009                  __end_of_OSCILLATOR_Initialize 039B  
                                        ?_main 0070                                __end_of___lwdiv 0287  
                                        i1l110 03D2                                          i1l103 02BF  
                                        i1l113 03CD                                          i1l107 035F  
                                        i1l116 03D1                                          i1l283 0025  
                                        _OSCEN 0891                                          _TMR0H 001D  
                                        _TMR0L 001C                                          u35_20 035A  
                                        u35_21 0359                                          u53_20 000A  
                                        u53_21 0009                                          u46_20 0291  
                                        u54_20 000F                                          u46_21 0290  
                                        u54_21 000E                                          u47_20 02A1  
                                        u55_20 0013                                          u47_21 02A0  
                                        u55_21 0012                                          u48_20 02B5  
                                        u56_20 0023                                          u48_21 02B4  
                                        u56_21 0020                                          _TRISA 0011  
                                        u57_24 0025                                          _TRISB 0012  
                                        _TRISC 0013                                          _RXPPS 0ECB  
                                        main@i 0046                                          main@j 0048  
                                        pclath 000A                                          status 0003  
                                        wtemp0 007E                                __initialization 0029  
                                 __end_of_main 024A                                 ??_EUSART_Write 0073  
                  ?_INTERRUPT_InterruptManager 0070                 ??_EUSART_SetRxInterruptHandler 0075  
                                       ??_main 0036      __end_of_EUSART_DefaultFramingErrorHandler 03D3  
   __size_of_EUSART_DefaultFramingErrorHandler 0001            ??_EUSART_DefaultFramingErrorHandler 0070  
           ?_EUSART_DefaultFramingErrorHandler 0070              _EUSART_DefaultFramingErrorHandler 03D2  
                                  _Get_Voltage 0069                     _EUSART_OverrunErrorHandler 004E  
                                       _ANSELA 0F38                                         _ANSELB 0F43  
                                       _ANSELC 0F4E                                         _T0CON0 001E  
                                       _T0CON1 001F                                         _RC1REG 0119  
                                       _RC1STA 011D                                         i1l1300 03CE  
                                       i1l1410 0296                                         i1l1420 02B5  
                                       i1l1412 029C                                         i1l1404 0287  
                                       i1l1270 0354                                         i1l1422 02BC  
                                       i1l1414 02A1                                         i1l1406 028C  
                                       i1l1272 035A                                         i1l1264 0346  
                                       i1l1416 02A6                                         i1l1408 0291  
                                       _ODCONA 0F3A                                         i1l1274 035B  
                                       i1l1266 0350                                         i1l1418 02AC  
                                       _ODCONB 0F45                                         _ODCONC 0F50  
                                       _RC6PPS 0F26                                         i1l1268 0354  
                                       i1l1470 0013                                         i1l1472 0019  
                                       i1l1464 0006                                         i1l1298 03CA  
                                       i1l1466 000A                                         i1l1468 000F  
                                       _INLVLA 0F3C                                         _INLVLB 0F47  
                                       _INLVLC 0F52                                         _INLVLE 0F68  
                                       _OSCFRQ 0893                                         _TX1REG 011A  
                                       _TX1STA 011E                                      ??___lwdiv 0077  
                             ?_TMR0_Initialize 0070                                 _PMD_Initialize 03A3  
                         __size_of_EUSART_Read 0029                              _SYSTEM_Initialize 0360  
                      __end_of__initialization 0065                             ?_SYSTEM_Initialize 0070  
                               __pcstackCOMMON 0070                                   __pidataBANK0 039B  
                          ??_SYSTEM_Initialize 0075                        __size_of_TMR0_ReadTimer 0007  
                       __end_of_PMD_Initialize 03AB                           _eusartRxStatusBuffer 00A0  
              ??_EUSART_SetOverrunErrorHandler 0075                      __end_of_SYSTEM_Initialize 0370  
                                   __pbssBANK0 005C                                     __pbssBANK1 00A0  
                                   __pbssBANK2 0120                           __end_of_EUSART_Write 0392  
                  __size_of_EUSART_Receive_ISR 0039                                     __pmaintext 019C  
                                   __pintentry 0004                   ??_EUSART_DefaultErrorHandler 0073  
                              ?_PMD_Initialize 0070                                  _eusartRxCount 0078  
                                      _SP1BRGH 011C                                        _SP1BRGL 011B  
                                      _OSCCON1 088D                                        _OSCCON3 088F  
                __size_of_EUSART_RxDataHandler 001A                                        _OSCTUNE 0892  
                                      _SLRCONA 0F3B                                        _SLRCONB 0F46  
                                      _SLRCONC 0F51                       ??_EUSART_SetErrorHandler 0075  
          __size_of_EUSART_DefaultErrorHandler 0004                                        ___lwdiv 024A  
                                      __ptext1 03AB                                        __ptext2 0360  
                                      __ptext3 037C                                        __ptext4 03A3  
                                      __ptext5 02F0                                        __ptext6 0392  
                                      __ptext7 02C0                                        __ptext8 03B2  
                                      __ptext9 03B8                          _OSCILLATOR_Initialize 0392  
                     ??_PIN_MANAGER_Initialize 0073                                   ?_Get_Voltage 0023  
                   __size_of_SYSTEM_Initialize 0010                                        clrloop0 0371  
                                      main@out 0038                           end_of_initialization 0065  
        __end_of_EUSART_SetOverrunErrorHandler 03BE         __size_of_EUSART_SetOverrunErrorHandler 0006  
                _EUSART_SetOverrunErrorHandler 03B8                              _EUSART_Initialize 02C0  
                           ?_EUSART_Initialize 0070                          TMR0_ReadTimer@readVal 0074  
                                   main@F12063 0054                                   _Coulomb_Data 2122  
                               _TMR0_ReadTimer 03AB                            ??_EUSART_Initialize 0075  
                        __size_of_EUSART_Write 000A                __size_of_EUSART_SetErrorHandler 0006  
                    __end_of_EUSART_Initialize 02F0                         __end_of_TMR0_ReadTimer 03B2  
           __end_of_EUSART_DefaultErrorHandler 03D2                     _EUSART_DefaultErrorHandler 03CE  
                                 _EUSART_Write 0388                         ?_OSCILLATOR_Initialize 0070  
                          start_initialization 0029                       __size_of_TMR0_Initialize 000C  
              __size_of_PIN_MANAGER_Initialize 002D                                  ??_EUSART_Read 0073  
 EUSART_SetRxInterruptHandler@interruptHandler 0073                 ?_EUSART_SetOverrunErrorHandler 0073  
                   _EUSART_FramingErrorHandler 0050                               ??_PMD_Initialize 0073  
                              ?_TMR0_ReadTimer 0070                         _EUSART_SetErrorHandler 03C4  
                                  __pdataBANK0 0054                                    __pbssBIGRAM 2122  
                                  __pbssCOMMON 0078                                      ___latbits 0001  
                                __pcstackBANK0 0020                           __size_of_Get_Voltage 0133  
                   __end_of_EUSART_Receive_ISR 02C0                     __size_of_EUSART_Initialize 0030  
             _EUSART_RxDefaultInterruptHandler 0052                            __end_of_EUSART_Read 0346  
                                    __pnvBANK0 004C                   __end_of_EUSART_RxDataHandler 0360  
                             ___lwdiv@dividend 0075                         _PIN_MANAGER_Initialize 02F0  
                         EUSART_Read@readValue 0074                                       ?___lwdiv 0073  
                                 _eusartRxHead 007A                                   _eusartRxTail 0079  
                 ??_INTERRUPT_InterruptManager 0073                                       _BAUD1CON 011F  
                             ___lwdiv@quotient 0021                                 _eusartRxBuffer 0120  
                            ??_TMR0_Initialize 0073                                       _LATAbits 0016  
       EUSART_SetErrorHandler@interruptHandler 0073                                      clear_ram0 0370  
                                     _PIE3bits 0719                              _eusartRxLastError 005F  
          __size_of_INTERRUPT_InterruptManager 0023                                       _PIR0bits 070C  
              ??_EUSART_SetFramingErrorHandler 0075                                       _PIR3bits 070F  
    __end_of_EUSART_DefaultOverrunErrorHandler 03CE     __size_of_EUSART_DefaultOverrunErrorHandler 0004  
          ??_EUSART_DefaultOverrunErrorHandler 0070             ?_EUSART_DefaultOverrunErrorHandler 0070  
            _EUSART_DefaultOverrunErrorHandler 03CA                                      main@index 0044  
                                  _EUSART_Read 031D                        ??_OSCILLATOR_Initialize 0073  
                          _EUSART_ErrorHandler 004C                    ?_EUSART_DefaultErrorHandler 0070  
                             __size_of___lwdiv 003D                                   Get_Voltage@k 0023  
                                   _T0CON0bits 001E                                ___lwdiv@divisor 0073  
                         _EUSART_RxDataHandler 0346                                ___lwdiv@counter 0020  
                                     __ptext10 03BE                                       __ptext11 03C4  
                                     __ptext20 03CE                                       __ptext12 0069  
                                     __ptext21 0346                                       __ptext13 024A  
                                     __ptext14 0388                                       __ptext15 031D  
                                     __ptext17 0287                                       __ptext18 03CA  
                                     __ptext19 03D2                                  __size_of_main 00AE  
                             ??_TMR0_ReadTimer 0073                        ?_EUSART_SetErrorHandler 0073  
                                   _RC1STAbits 011D  EUSART_SetOverrunErrorHandler@interruptHandler 0073  
                                     int$flags 007E             __end_of_INTERRUPT_InterruptManager 0027  
                   _INTERRUPT_InterruptManager 0004          __end_of_EUSART_SetFramingErrorHandler 03C4  
       __size_of_EUSART_SetFramingErrorHandler 0006                  _EUSART_SetFramingErrorHandler 03BE  
                                   _INTCONbits 000B                          ?_EUSART_RxDataHandler 0070  
                                     intlevel1 0000                                main@H_L_counter 004A  
                      ?_PIN_MANAGER_Initialize 0070                 __end_of_EUSART_SetErrorHandler 03CA  
         __end_of_EUSART_SetRxInterruptHandler 03B8          __size_of_EUSART_SetRxInterruptHandler 0006  
                 _EUSART_SetRxInterruptHandler 03B2                             _EUSART_Receive_ISR 0287  
EUSART_SetFramingErrorHandler@interruptHandler 0073                            ?_EUSART_Receive_ISR 0070  
                              _TMR0_Initialize 037C                                  ??_Get_Voltage 0025  
                                   _TX1STAbits 011E                             EUSART_Write@txData 0073  
               __end_of_PIN_MANAGER_Initialize 031D                           ??_EUSART_Receive_ISR 0073  
